ARM GAS  C:\Users\Admin\AppData\Local\Temp\cciaXUKk.s 			page 1


   1              		.syntax unified
   2              		.cpu cortex-m3
   3              		.fpu softvfp
   4              		.eabi_attribute 20, 1
   5              		.eabi_attribute 21, 1
   6              		.eabi_attribute 23, 3
   7              		.eabi_attribute 24, 1
   8              		.eabi_attribute 25, 1
   9              		.eabi_attribute 26, 1
  10              		.eabi_attribute 30, 1
  11              		.eabi_attribute 34, 1
  12              		.eabi_attribute 18, 4
  13              		.thumb
  14              		.syntax unified
  15              		.file	"cyfitter_cfg.c"
  16              		.text
  17              	.Ltext0:
  18              		.cfi_sections	.debug_frame
  19              		.section	.text.CyClockStartupError,"ax",%progbits
  20              		.align	2
  21              		.thumb
  22              		.thumb_func
  23              		.type	CyClockStartupError, %function
  24              	CyClockStartupError:
  25              	.LFB3:
  26              		.file 1 "Generated_Source\\PSoC5\\cyfitter_cfg.c"
   1:Generated_Source\PSoC5/cyfitter_cfg.c **** 
   2:Generated_Source\PSoC5/cyfitter_cfg.c **** /*******************************************************************************
   3:Generated_Source\PSoC5/cyfitter_cfg.c **** * File Name: cyfitter_cfg.c
   4:Generated_Source\PSoC5/cyfitter_cfg.c **** * 
   5:Generated_Source\PSoC5/cyfitter_cfg.c **** * PSoC Creator  4.2
   6:Generated_Source\PSoC5/cyfitter_cfg.c **** *
   7:Generated_Source\PSoC5/cyfitter_cfg.c **** * Description:
   8:Generated_Source\PSoC5/cyfitter_cfg.c **** * This file contains device initialization code.
   9:Generated_Source\PSoC5/cyfitter_cfg.c **** * Except for the user defined sections in CyClockStartupError(), this file should not be modified.
  10:Generated_Source\PSoC5/cyfitter_cfg.c **** * This file is automatically generated by PSoC Creator.
  11:Generated_Source\PSoC5/cyfitter_cfg.c **** *
  12:Generated_Source\PSoC5/cyfitter_cfg.c **** ********************************************************************************
  13:Generated_Source\PSoC5/cyfitter_cfg.c **** * Copyright (c) 2007-2018 Cypress Semiconductor.  All rights reserved.
  14:Generated_Source\PSoC5/cyfitter_cfg.c **** * You may use this file only in accordance with the license, terms, conditions, 
  15:Generated_Source\PSoC5/cyfitter_cfg.c **** * disclaimers, and limitations in the end user license agreement accompanying 
  16:Generated_Source\PSoC5/cyfitter_cfg.c **** * the software package with which this file was provided.
  17:Generated_Source\PSoC5/cyfitter_cfg.c **** ********************************************************************************/
  18:Generated_Source\PSoC5/cyfitter_cfg.c **** 
  19:Generated_Source\PSoC5/cyfitter_cfg.c **** #include <string.h>
  20:Generated_Source\PSoC5/cyfitter_cfg.c **** #include "cytypes.h"
  21:Generated_Source\PSoC5/cyfitter_cfg.c **** #include "cydevice_trm.h"
  22:Generated_Source\PSoC5/cyfitter_cfg.c **** #include "cyfitter.h"
  23:Generated_Source\PSoC5/cyfitter_cfg.c **** #include "CyLib.h"
  24:Generated_Source\PSoC5/cyfitter_cfg.c **** #include "cyfitter_cfg.h"
  25:Generated_Source\PSoC5/cyfitter_cfg.c **** #include "cyapicallbacks.h"
  26:Generated_Source\PSoC5/cyfitter_cfg.c **** 
  27:Generated_Source\PSoC5/cyfitter_cfg.c **** #define CY_NEED_CYCLOCKSTARTUPERROR 1
  28:Generated_Source\PSoC5/cyfitter_cfg.c **** 
  29:Generated_Source\PSoC5/cyfitter_cfg.c **** 
  30:Generated_Source\PSoC5/cyfitter_cfg.c **** #if defined(__GNUC__) || defined(__ARMCC_VERSION)
  31:Generated_Source\PSoC5/cyfitter_cfg.c ****     #define CYPACKED 
ARM GAS  C:\Users\Admin\AppData\Local\Temp\cciaXUKk.s 			page 2


  32:Generated_Source\PSoC5/cyfitter_cfg.c ****     #define CYPACKED_ATTR __attribute__ ((packed))
  33:Generated_Source\PSoC5/cyfitter_cfg.c ****     #define CYALIGNED __attribute__ ((aligned))
  34:Generated_Source\PSoC5/cyfitter_cfg.c ****     #define CY_CFG_UNUSED __attribute__ ((unused))
  35:Generated_Source\PSoC5/cyfitter_cfg.c ****     #ifndef CY_CFG_SECTION
  36:Generated_Source\PSoC5/cyfitter_cfg.c ****         #define CY_CFG_SECTION __attribute__ ((section(".psocinit")))
  37:Generated_Source\PSoC5/cyfitter_cfg.c ****     #endif
  38:Generated_Source\PSoC5/cyfitter_cfg.c ****     
  39:Generated_Source\PSoC5/cyfitter_cfg.c ****     #if defined(__ARMCC_VERSION)
  40:Generated_Source\PSoC5/cyfitter_cfg.c ****         #define CY_CFG_MEMORY_BARRIER() __memory_changed()
  41:Generated_Source\PSoC5/cyfitter_cfg.c ****     #else
  42:Generated_Source\PSoC5/cyfitter_cfg.c ****         #define CY_CFG_MEMORY_BARRIER() __sync_synchronize()
  43:Generated_Source\PSoC5/cyfitter_cfg.c ****     #endif
  44:Generated_Source\PSoC5/cyfitter_cfg.c ****     
  45:Generated_Source\PSoC5/cyfitter_cfg.c **** #elif defined(__ICCARM__)
  46:Generated_Source\PSoC5/cyfitter_cfg.c ****     #include <intrinsics.h>
  47:Generated_Source\PSoC5/cyfitter_cfg.c **** 
  48:Generated_Source\PSoC5/cyfitter_cfg.c ****     #define CYPACKED __packed
  49:Generated_Source\PSoC5/cyfitter_cfg.c ****     #define CYPACKED_ATTR 
  50:Generated_Source\PSoC5/cyfitter_cfg.c ****     #define CYALIGNED _Pragma("data_alignment=4")
  51:Generated_Source\PSoC5/cyfitter_cfg.c ****     #define CY_CFG_UNUSED _Pragma("diag_suppress=Pe177")
  52:Generated_Source\PSoC5/cyfitter_cfg.c ****     #define CY_CFG_SECTION _Pragma("location=\".psocinit\"")
  53:Generated_Source\PSoC5/cyfitter_cfg.c ****     
  54:Generated_Source\PSoC5/cyfitter_cfg.c ****     #define CY_CFG_MEMORY_BARRIER() __DMB()
  55:Generated_Source\PSoC5/cyfitter_cfg.c ****     
  56:Generated_Source\PSoC5/cyfitter_cfg.c **** #else
  57:Generated_Source\PSoC5/cyfitter_cfg.c ****     #error Unsupported toolchain
  58:Generated_Source\PSoC5/cyfitter_cfg.c **** #endif
  59:Generated_Source\PSoC5/cyfitter_cfg.c **** 
  60:Generated_Source\PSoC5/cyfitter_cfg.c **** #ifndef CYCODE
  61:Generated_Source\PSoC5/cyfitter_cfg.c ****     #define CYCODE
  62:Generated_Source\PSoC5/cyfitter_cfg.c **** #endif
  63:Generated_Source\PSoC5/cyfitter_cfg.c **** #ifndef CYDATA
  64:Generated_Source\PSoC5/cyfitter_cfg.c ****     #define CYDATA
  65:Generated_Source\PSoC5/cyfitter_cfg.c **** #endif
  66:Generated_Source\PSoC5/cyfitter_cfg.c **** #ifndef CYFAR
  67:Generated_Source\PSoC5/cyfitter_cfg.c ****     #define CYFAR
  68:Generated_Source\PSoC5/cyfitter_cfg.c **** #endif
  69:Generated_Source\PSoC5/cyfitter_cfg.c **** #ifndef CYXDATA
  70:Generated_Source\PSoC5/cyfitter_cfg.c ****     #define CYXDATA
  71:Generated_Source\PSoC5/cyfitter_cfg.c **** #endif
  72:Generated_Source\PSoC5/cyfitter_cfg.c **** 
  73:Generated_Source\PSoC5/cyfitter_cfg.c **** 
  74:Generated_Source\PSoC5/cyfitter_cfg.c **** CY_CFG_UNUSED
  75:Generated_Source\PSoC5/cyfitter_cfg.c **** static void CYMEMZERO(void *s, size_t n);
  76:Generated_Source\PSoC5/cyfitter_cfg.c **** CY_CFG_UNUSED
  77:Generated_Source\PSoC5/cyfitter_cfg.c **** static void CYMEMZERO(void *s, size_t n)
  78:Generated_Source\PSoC5/cyfitter_cfg.c **** {
  79:Generated_Source\PSoC5/cyfitter_cfg.c **** 	(void)memset(s, 0, n);
  80:Generated_Source\PSoC5/cyfitter_cfg.c **** }
  81:Generated_Source\PSoC5/cyfitter_cfg.c **** CY_CFG_UNUSED
  82:Generated_Source\PSoC5/cyfitter_cfg.c **** static void CYCONFIGCPY(void *dest, const void *src, size_t n);
  83:Generated_Source\PSoC5/cyfitter_cfg.c **** CY_CFG_UNUSED
  84:Generated_Source\PSoC5/cyfitter_cfg.c **** static void CYCONFIGCPY(void *dest, const void *src, size_t n)
  85:Generated_Source\PSoC5/cyfitter_cfg.c **** {
  86:Generated_Source\PSoC5/cyfitter_cfg.c **** 	(void)memcpy(dest, src, n);
  87:Generated_Source\PSoC5/cyfitter_cfg.c **** }
  88:Generated_Source\PSoC5/cyfitter_cfg.c **** CY_CFG_UNUSED
ARM GAS  C:\Users\Admin\AppData\Local\Temp\cciaXUKk.s 			page 3


  89:Generated_Source\PSoC5/cyfitter_cfg.c **** static void CYCONFIGCPYCODE(void *dest, const void *src, size_t n);
  90:Generated_Source\PSoC5/cyfitter_cfg.c **** CY_CFG_UNUSED
  91:Generated_Source\PSoC5/cyfitter_cfg.c **** static void CYCONFIGCPYCODE(void *dest, const void *src, size_t n)
  92:Generated_Source\PSoC5/cyfitter_cfg.c **** {
  93:Generated_Source\PSoC5/cyfitter_cfg.c **** 	(void)memcpy(dest, src, n);
  94:Generated_Source\PSoC5/cyfitter_cfg.c **** }
  95:Generated_Source\PSoC5/cyfitter_cfg.c **** 
  96:Generated_Source\PSoC5/cyfitter_cfg.c **** 
  97:Generated_Source\PSoC5/cyfitter_cfg.c **** 
  98:Generated_Source\PSoC5/cyfitter_cfg.c **** 
  99:Generated_Source\PSoC5/cyfitter_cfg.c **** /* Clock startup error codes                                                   */
 100:Generated_Source\PSoC5/cyfitter_cfg.c **** #define CYCLOCKSTART_NO_ERROR    0u
 101:Generated_Source\PSoC5/cyfitter_cfg.c **** #define CYCLOCKSTART_XTAL_ERROR  1u
 102:Generated_Source\PSoC5/cyfitter_cfg.c **** #define CYCLOCKSTART_32KHZ_ERROR 2u
 103:Generated_Source\PSoC5/cyfitter_cfg.c **** #define CYCLOCKSTART_PLL_ERROR   3u
 104:Generated_Source\PSoC5/cyfitter_cfg.c **** #define CYCLOCKSTART_FLL_ERROR   4u
 105:Generated_Source\PSoC5/cyfitter_cfg.c **** #define CYCLOCKSTART_WCO_ERROR   5u
 106:Generated_Source\PSoC5/cyfitter_cfg.c **** 
 107:Generated_Source\PSoC5/cyfitter_cfg.c **** 
 108:Generated_Source\PSoC5/cyfitter_cfg.c **** #ifdef CY_NEED_CYCLOCKSTARTUPERROR
 109:Generated_Source\PSoC5/cyfitter_cfg.c **** /*******************************************************************************
 110:Generated_Source\PSoC5/cyfitter_cfg.c **** * Function Name: CyClockStartupError
 111:Generated_Source\PSoC5/cyfitter_cfg.c **** ********************************************************************************
 112:Generated_Source\PSoC5/cyfitter_cfg.c **** * Summary:
 113:Generated_Source\PSoC5/cyfitter_cfg.c **** *  If an error is encountered during clock configuration (crystal startup error,
 114:Generated_Source\PSoC5/cyfitter_cfg.c **** *  PLL lock error, etc.), the system will end up here.  Unless reimplemented by
 115:Generated_Source\PSoC5/cyfitter_cfg.c **** *  the customer, this function will stop in an infinite loop.
 116:Generated_Source\PSoC5/cyfitter_cfg.c **** *
 117:Generated_Source\PSoC5/cyfitter_cfg.c **** * Parameters:
 118:Generated_Source\PSoC5/cyfitter_cfg.c **** *   void
 119:Generated_Source\PSoC5/cyfitter_cfg.c **** *
 120:Generated_Source\PSoC5/cyfitter_cfg.c **** * Return:
 121:Generated_Source\PSoC5/cyfitter_cfg.c **** *   void
 122:Generated_Source\PSoC5/cyfitter_cfg.c **** *
 123:Generated_Source\PSoC5/cyfitter_cfg.c **** *******************************************************************************/
 124:Generated_Source\PSoC5/cyfitter_cfg.c **** CY_CFG_UNUSED
 125:Generated_Source\PSoC5/cyfitter_cfg.c **** static void CyClockStartupError(uint8 errorCode);
 126:Generated_Source\PSoC5/cyfitter_cfg.c **** CY_CFG_UNUSED
 127:Generated_Source\PSoC5/cyfitter_cfg.c **** static void CyClockStartupError(uint8 errorCode)
 128:Generated_Source\PSoC5/cyfitter_cfg.c **** {
  27              		.loc 1 128 0
  28              		.cfi_startproc
  29              		@ Volatile: function does not return.
  30              		@ args = 0, pretend = 0, frame = 0
  31              		@ frame_needed = 0, uses_anonymous_args = 0
  32              		@ link register save eliminated.
  33              	.LVL0:
  34              	.L2:
  35 0000 FEE7     		b	.L2
  36              		.cfi_endproc
  37              	.LFE3:
  38              		.size	CyClockStartupError, .-CyClockStartupError
  39 0002 00BF     		.section	.text.cfg_write_bytes32,"ax",%progbits
  40              		.align	2
  41              		.thumb
  42              		.thumb_func
  43              		.type	cfg_write_bytes32, %function
ARM GAS  C:\Users\Admin\AppData\Local\Temp\cciaXUKk.s 			page 4


  44              	cfg_write_bytes32:
  45              	.LFB4:
 129:Generated_Source\PSoC5/cyfitter_cfg.c ****     /* To remove the compiler warning if errorCode not used.                */
 130:Generated_Source\PSoC5/cyfitter_cfg.c ****     errorCode = errorCode;
 131:Generated_Source\PSoC5/cyfitter_cfg.c **** 
 132:Generated_Source\PSoC5/cyfitter_cfg.c ****     /* If we have a clock startup error (bad MHz crystal, PLL lock, etc.),  */
 133:Generated_Source\PSoC5/cyfitter_cfg.c ****     /* we will end up here to allow the customer to implement something to  */
 134:Generated_Source\PSoC5/cyfitter_cfg.c ****     /* deal with the clock condition.                                       */
 135:Generated_Source\PSoC5/cyfitter_cfg.c **** 
 136:Generated_Source\PSoC5/cyfitter_cfg.c **** #ifdef CY_CFG_CLOCK_STARTUP_ERROR_CALLBACK
 137:Generated_Source\PSoC5/cyfitter_cfg.c ****     CY_CFG_Clock_Startup_ErrorCallback();
 138:Generated_Source\PSoC5/cyfitter_cfg.c **** #else
 139:Generated_Source\PSoC5/cyfitter_cfg.c ****     /*  If not using CY_CFG_CLOCK_STARTUP_ERROR_CALLBACK, place your clock startup code here. */
 140:Generated_Source\PSoC5/cyfitter_cfg.c ****     /* `#START CyClockStartupError` */
 141:Generated_Source\PSoC5/cyfitter_cfg.c **** 
 142:Generated_Source\PSoC5/cyfitter_cfg.c **** 
 143:Generated_Source\PSoC5/cyfitter_cfg.c **** 
 144:Generated_Source\PSoC5/cyfitter_cfg.c ****     /* `#END` */
 145:Generated_Source\PSoC5/cyfitter_cfg.c **** 
 146:Generated_Source\PSoC5/cyfitter_cfg.c ****     while(1) {}
 147:Generated_Source\PSoC5/cyfitter_cfg.c **** #endif /* CY_CFG_CLOCK_STARTUP_ERROR_CALLBACK */
 148:Generated_Source\PSoC5/cyfitter_cfg.c **** }
 149:Generated_Source\PSoC5/cyfitter_cfg.c **** #endif
 150:Generated_Source\PSoC5/cyfitter_cfg.c **** 
 151:Generated_Source\PSoC5/cyfitter_cfg.c **** #define CY_CFG_BASE_ADDR_COUNT 33u
 152:Generated_Source\PSoC5/cyfitter_cfg.c **** CYPACKED typedef struct
 153:Generated_Source\PSoC5/cyfitter_cfg.c **** {
 154:Generated_Source\PSoC5/cyfitter_cfg.c **** 	uint8 offset;
 155:Generated_Source\PSoC5/cyfitter_cfg.c **** 	uint8 value;
 156:Generated_Source\PSoC5/cyfitter_cfg.c **** } CYPACKED_ATTR cy_cfg_addrvalue_t;
 157:Generated_Source\PSoC5/cyfitter_cfg.c **** 
 158:Generated_Source\PSoC5/cyfitter_cfg.c **** #define cy_cfg_addr_table ((const uint32 CYFAR *)0x48000000u)
 159:Generated_Source\PSoC5/cyfitter_cfg.c **** #define cy_cfg_data_table ((const cy_cfg_addrvalue_t CYFAR *)0x48000084u)
 160:Generated_Source\PSoC5/cyfitter_cfg.c **** 
 161:Generated_Source\PSoC5/cyfitter_cfg.c **** /* IOPINS0_0 Address: CYREG_PRT0_DM0 Size (bytes): 8 */
 162:Generated_Source\PSoC5/cyfitter_cfg.c **** #define BS_IOPINS0_0_VAL ((const uint8 CYFAR *)0x48000230u)
 163:Generated_Source\PSoC5/cyfitter_cfg.c **** 
 164:Generated_Source\PSoC5/cyfitter_cfg.c **** /* IOPINS0_8 Address: CYREG_PRT15_DR Size (bytes): 10 */
 165:Generated_Source\PSoC5/cyfitter_cfg.c **** #define BS_IOPINS0_8_VAL ((const uint8 CYFAR *)0x48000238u)
 166:Generated_Source\PSoC5/cyfitter_cfg.c **** 
 167:Generated_Source\PSoC5/cyfitter_cfg.c **** /* IOPINS0_1 Address: CYREG_PRT1_DM0 Size (bytes): 8 */
 168:Generated_Source\PSoC5/cyfitter_cfg.c **** #define BS_IOPINS0_1_VAL ((const uint8 CYFAR *)0x48000244u)
 169:Generated_Source\PSoC5/cyfitter_cfg.c **** 
 170:Generated_Source\PSoC5/cyfitter_cfg.c **** /* IOPINS0_2 Address: CYREG_PRT2_DM0 Size (bytes): 8 */
 171:Generated_Source\PSoC5/cyfitter_cfg.c **** #define BS_IOPINS0_2_VAL ((const uint8 CYFAR *)0x4800024Cu)
 172:Generated_Source\PSoC5/cyfitter_cfg.c **** 
 173:Generated_Source\PSoC5/cyfitter_cfg.c **** /* IOPINS0_3 Address: CYREG_PRT3_DM0 Size (bytes): 8 */
 174:Generated_Source\PSoC5/cyfitter_cfg.c **** #define BS_IOPINS0_3_VAL ((const uint8 CYFAR *)0x48000254u)
 175:Generated_Source\PSoC5/cyfitter_cfg.c **** 
 176:Generated_Source\PSoC5/cyfitter_cfg.c **** /* CYDEV_CLKDIST_ACFG0_CFG0 Address: CYREG_CLKDIST_ACFG0_CFG0 Size (bytes): 12 */
 177:Generated_Source\PSoC5/cyfitter_cfg.c **** #define BS_CYDEV_CLKDIST_ACFG0_CFG0_VAL ((const uint8 CYFAR *)0x4800025Cu)
 178:Generated_Source\PSoC5/cyfitter_cfg.c **** 
 179:Generated_Source\PSoC5/cyfitter_cfg.c **** /* PHUB_CFGMEM4 Address: CYREG_PHUB_CFGMEM4_CFG0 Size (bytes): 4 */
 180:Generated_Source\PSoC5/cyfitter_cfg.c **** #define BS_PHUB_CFGMEM4_VAL ((const uint8 CYFAR *)0x48000268u)
 181:Generated_Source\PSoC5/cyfitter_cfg.c **** 
 182:Generated_Source\PSoC5/cyfitter_cfg.c **** /* PHUB_CFGMEM5 Address: CYREG_PHUB_CFGMEM5_CFG0 Size (bytes): 4 */
 183:Generated_Source\PSoC5/cyfitter_cfg.c **** #define BS_PHUB_CFGMEM5_VAL ((const uint8 CYFAR *)0x4800026Cu)
ARM GAS  C:\Users\Admin\AppData\Local\Temp\cciaXUKk.s 			page 5


 184:Generated_Source\PSoC5/cyfitter_cfg.c **** 
 185:Generated_Source\PSoC5/cyfitter_cfg.c **** 
 186:Generated_Source\PSoC5/cyfitter_cfg.c **** /*******************************************************************************
 187:Generated_Source\PSoC5/cyfitter_cfg.c **** * Function Name: cfg_write_bytes32
 188:Generated_Source\PSoC5/cyfitter_cfg.c **** ********************************************************************************
 189:Generated_Source\PSoC5/cyfitter_cfg.c **** * Summary:
 190:Generated_Source\PSoC5/cyfitter_cfg.c **** *  This function is used for setting up the chip configuration areas that
 191:Generated_Source\PSoC5/cyfitter_cfg.c **** *  contain relatively sparse data.
 192:Generated_Source\PSoC5/cyfitter_cfg.c **** *
 193:Generated_Source\PSoC5/cyfitter_cfg.c **** * Parameters:
 194:Generated_Source\PSoC5/cyfitter_cfg.c **** *   void
 195:Generated_Source\PSoC5/cyfitter_cfg.c **** *
 196:Generated_Source\PSoC5/cyfitter_cfg.c **** * Return:
 197:Generated_Source\PSoC5/cyfitter_cfg.c **** *   void
 198:Generated_Source\PSoC5/cyfitter_cfg.c **** *
 199:Generated_Source\PSoC5/cyfitter_cfg.c **** *******************************************************************************/
 200:Generated_Source\PSoC5/cyfitter_cfg.c **** static void cfg_write_bytes32(const uint32 addr_table[], const cy_cfg_addrvalue_t data_table[]);
 201:Generated_Source\PSoC5/cyfitter_cfg.c **** static void cfg_write_bytes32(const uint32 addr_table[], const cy_cfg_addrvalue_t data_table[])
 202:Generated_Source\PSoC5/cyfitter_cfg.c **** {
  46              		.loc 1 202 0
  47              		.cfi_startproc
  48              		@ args = 0, pretend = 0, frame = 0
  49              		@ frame_needed = 0, uses_anonymous_args = 0
  50              		@ link register save eliminated.
  51              	.LVL1:
  52              		.loc 1 202 0
  53 0000 F0B4     		push	{r4, r5, r6, r7}
  54              		.cfi_def_cfa_offset 16
  55              		.cfi_offset 4, -16
  56              		.cfi_offset 5, -12
  57              		.cfi_offset 6, -8
  58              		.cfi_offset 7, -4
  59              	.LVL2:
 203:Generated_Source\PSoC5/cyfitter_cfg.c **** 	/* For 32-bit little-endian architectures */
 204:Generated_Source\PSoC5/cyfitter_cfg.c **** 	uint32 i, j = 0u;
  60              		.loc 1 204 0
  61 0002 0022     		movs	r2, #0
 205:Generated_Source\PSoC5/cyfitter_cfg.c **** 	for (i = 0u; i < CY_CFG_BASE_ADDR_COUNT; i++)
  62              		.loc 1 205 0
  63 0004 1746     		mov	r7, r2
  64 0006 11E0     		b	.L4
  65              	.LVL3:
  66              	.L7:
  67              	.LBB2:
 206:Generated_Source\PSoC5/cyfitter_cfg.c **** 	{
 207:Generated_Source\PSoC5/cyfitter_cfg.c **** 		uint32 baseAddr = addr_table[i];
  68              		.loc 1 207 0
  69 0008 50F82760 		ldr	r6, [r0, r7, lsl #2]
  70              	.LVL4:
 208:Generated_Source\PSoC5/cyfitter_cfg.c **** 		uint8 count = (uint8)baseAddr;
  71              		.loc 1 208 0
  72 000c F3B2     		uxtb	r3, r6
  73              	.LVL5:
 209:Generated_Source\PSoC5/cyfitter_cfg.c **** 		baseAddr &= 0xFFFFFF00u;
  74              		.loc 1 209 0
  75 000e 26F0FF06 		bic	r6, r6, #255
  76              	.LVL6:
ARM GAS  C:\Users\Admin\AppData\Local\Temp\cciaXUKk.s 			page 6


 210:Generated_Source\PSoC5/cyfitter_cfg.c **** 		while (count != 0u)
  77              		.loc 1 210 0
  78 0012 08E0     		b	.L5
  79              	.L6:
 211:Generated_Source\PSoC5/cyfitter_cfg.c **** 		{
 212:Generated_Source\PSoC5/cyfitter_cfg.c **** 			CY_SET_REG8((void *)(baseAddr + data_table[j].offset), data_table[j].value);
  80              		.loc 1 212 0
  81 0014 01EB4205 		add	r5, r1, r2, lsl #1
  82 0018 11F81240 		ldrb	r4, [r1, r2, lsl #1]	@ zero_extendqisi2
  83 001c 6D78     		ldrb	r5, [r5, #1]	@ zero_extendqisi2
  84 001e A555     		strb	r5, [r4, r6]
 213:Generated_Source\PSoC5/cyfitter_cfg.c **** 			j++;
  85              		.loc 1 213 0
  86 0020 0132     		adds	r2, r2, #1
  87              	.LVL7:
 214:Generated_Source\PSoC5/cyfitter_cfg.c **** 			count--;
  88              		.loc 1 214 0
  89 0022 013B     		subs	r3, r3, #1
  90              	.LVL8:
  91 0024 DBB2     		uxtb	r3, r3
  92              	.LVL9:
  93              	.L5:
 210:Generated_Source\PSoC5/cyfitter_cfg.c **** 		{
  94              		.loc 1 210 0
  95 0026 002B     		cmp	r3, #0
  96 0028 F4D1     		bne	.L6
  97              	.LBE2:
 205:Generated_Source\PSoC5/cyfitter_cfg.c **** 	{
  98              		.loc 1 205 0 discriminator 2
  99 002a 0137     		adds	r7, r7, #1
 100              	.LVL10:
 101              	.L4:
 205:Generated_Source\PSoC5/cyfitter_cfg.c **** 	{
 102              		.loc 1 205 0 is_stmt 0 discriminator 1
 103 002c 202F     		cmp	r7, #32
 104 002e EBD9     		bls	.L7
 215:Generated_Source\PSoC5/cyfitter_cfg.c **** 		}
 216:Generated_Source\PSoC5/cyfitter_cfg.c **** 	}
 217:Generated_Source\PSoC5/cyfitter_cfg.c **** }
 105              		.loc 1 217 0 is_stmt 1
 106 0030 F0BC     		pop	{r4, r5, r6, r7}
 107              		.cfi_restore 7
 108              		.cfi_restore 6
 109              		.cfi_restore 5
 110              		.cfi_restore 4
 111              		.cfi_def_cfa_offset 0
 112              	.LVL11:
 113 0032 7047     		bx	lr
 114              		.cfi_endproc
 115              	.LFE4:
 116              		.size	cfg_write_bytes32, .-cfg_write_bytes32
 117              		.section	.text.CYMEMZERO,"ax",%progbits
 118              		.align	2
 119              		.thumb
 120              		.thumb_func
 121              		.type	CYMEMZERO, %function
 122              	CYMEMZERO:
ARM GAS  C:\Users\Admin\AppData\Local\Temp\cciaXUKk.s 			page 7


 123              	.LFB0:
  78:Generated_Source\PSoC5/cyfitter_cfg.c **** 	(void)memset(s, 0, n);
 124              		.loc 1 78 0
 125              		.cfi_startproc
 126              		@ args = 0, pretend = 0, frame = 0
 127              		@ frame_needed = 0, uses_anonymous_args = 0
 128              	.LVL12:
 129 0000 08B5     		push	{r3, lr}
 130              		.cfi_def_cfa_offset 8
 131              		.cfi_offset 3, -8
 132              		.cfi_offset 14, -4
  79:Generated_Source\PSoC5/cyfitter_cfg.c **** }
 133              		.loc 1 79 0
 134 0002 0A46     		mov	r2, r1
 135 0004 0021     		movs	r1, #0
 136              	.LVL13:
 137 0006 FFF7FEFF 		bl	memset
 138              	.LVL14:
 139 000a 08BD     		pop	{r3, pc}
 140              		.cfi_endproc
 141              	.LFE0:
 142              		.size	CYMEMZERO, .-CYMEMZERO
 143              		.section	.text.AnalogSetDefault,"ax",%progbits
 144              		.align	2
 145              		.thumb
 146              		.thumb_func
 147              		.type	AnalogSetDefault, %function
 148              	AnalogSetDefault:
 149              	.LFB6:
 218:Generated_Source\PSoC5/cyfitter_cfg.c **** 
 219:Generated_Source\PSoC5/cyfitter_cfg.c **** /*******************************************************************************
 220:Generated_Source\PSoC5/cyfitter_cfg.c **** * Function Name: ClockSetup
 221:Generated_Source\PSoC5/cyfitter_cfg.c **** ********************************************************************************
 222:Generated_Source\PSoC5/cyfitter_cfg.c **** *
 223:Generated_Source\PSoC5/cyfitter_cfg.c **** * Summary:
 224:Generated_Source\PSoC5/cyfitter_cfg.c **** *  Performs the initialization of all of the clocks in the device based on the
 225:Generated_Source\PSoC5/cyfitter_cfg.c **** *  settings in the Clock tab of the DWR.  This includes enabling the requested
 226:Generated_Source\PSoC5/cyfitter_cfg.c **** *  clocks and setting the necessary dividers to produce the desired frequency. 
 227:Generated_Source\PSoC5/cyfitter_cfg.c **** *
 228:Generated_Source\PSoC5/cyfitter_cfg.c **** * Parameters:
 229:Generated_Source\PSoC5/cyfitter_cfg.c **** *  void
 230:Generated_Source\PSoC5/cyfitter_cfg.c **** *
 231:Generated_Source\PSoC5/cyfitter_cfg.c **** * Return:
 232:Generated_Source\PSoC5/cyfitter_cfg.c **** *  void
 233:Generated_Source\PSoC5/cyfitter_cfg.c **** *
 234:Generated_Source\PSoC5/cyfitter_cfg.c **** *******************************************************************************/
 235:Generated_Source\PSoC5/cyfitter_cfg.c **** static void ClockSetup(void);
 236:Generated_Source\PSoC5/cyfitter_cfg.c **** static void ClockSetup(void)
 237:Generated_Source\PSoC5/cyfitter_cfg.c **** {
 238:Generated_Source\PSoC5/cyfitter_cfg.c **** 	uint32 timeout;
 239:Generated_Source\PSoC5/cyfitter_cfg.c **** 	uint8 pllLock;
 240:Generated_Source\PSoC5/cyfitter_cfg.c **** 
 241:Generated_Source\PSoC5/cyfitter_cfg.c **** 
 242:Generated_Source\PSoC5/cyfitter_cfg.c **** 	/* Configure Digital Clocks based on settings from Clock DWR */
 243:Generated_Source\PSoC5/cyfitter_cfg.c **** 	CY_SET_XTND_REG16((void CYFAR *)(CYREG_CLKDIST_DCFG0_CFG0), 0x0000u);
 244:Generated_Source\PSoC5/cyfitter_cfg.c **** 	CY_SET_XTND_REG8((void CYFAR *)(CYREG_CLKDIST_DCFG0_CFG0 + 0x2u), 0x50u);
 245:Generated_Source\PSoC5/cyfitter_cfg.c **** 	CY_SET_XTND_REG16((void CYFAR *)(CYREG_CLKDIST_DCFG1_CFG0), 0x0257u);
ARM GAS  C:\Users\Admin\AppData\Local\Temp\cciaXUKk.s 			page 8


 246:Generated_Source\PSoC5/cyfitter_cfg.c **** 	CY_SET_XTND_REG8((void CYFAR *)(CYREG_CLKDIST_DCFG1_CFG0 + 0x2u), 0x18u);
 247:Generated_Source\PSoC5/cyfitter_cfg.c **** 
 248:Generated_Source\PSoC5/cyfitter_cfg.c **** 	/* Configure Analog Clocks based on settings from Clock DWR */
 249:Generated_Source\PSoC5/cyfitter_cfg.c **** 	CYCONFIGCPY((void CYFAR *)(CYREG_CLKDIST_ACFG0_CFG0), (const void CYFAR *)(BS_CYDEV_CLKDIST_ACFG0_
 250:Generated_Source\PSoC5/cyfitter_cfg.c **** 
 251:Generated_Source\PSoC5/cyfitter_cfg.c **** 	/* Configure ILO based on settings from Clock DWR */
 252:Generated_Source\PSoC5/cyfitter_cfg.c **** 	CY_SET_XTND_REG8((void CYFAR *)(CYREG_SLOWCLK_ILO_CR0), 0x06u);
 253:Generated_Source\PSoC5/cyfitter_cfg.c **** 
 254:Generated_Source\PSoC5/cyfitter_cfg.c **** 	/* Configure IMO based on settings from Clock DWR */
 255:Generated_Source\PSoC5/cyfitter_cfg.c **** 	CY_SET_XTND_REG8((void CYFAR *)(CYREG_FASTCLK_IMO_CR), 0x52u);
 256:Generated_Source\PSoC5/cyfitter_cfg.c **** 	CY_SET_XTND_REG8((void CYFAR *)(CYREG_IMO_TR1), (CY_GET_XTND_REG8((void CYFAR *)CYREG_FLSHID_CUST_
 257:Generated_Source\PSoC5/cyfitter_cfg.c **** 
 258:Generated_Source\PSoC5/cyfitter_cfg.c **** 	/* Configure PLL based on settings from Clock DWR */
 259:Generated_Source\PSoC5/cyfitter_cfg.c **** 	CY_SET_XTND_REG16((void CYFAR *)(CYREG_FASTCLK_PLL_P), 0x0708u);
 260:Generated_Source\PSoC5/cyfitter_cfg.c **** 	CY_SET_XTND_REG16((void CYFAR *)(CYREG_FASTCLK_PLL_CFG0), 0x1251u);
 261:Generated_Source\PSoC5/cyfitter_cfg.c **** 	/* Wait up to 250us for the PLL to lock */
 262:Generated_Source\PSoC5/cyfitter_cfg.c **** 	pllLock = 0u;
 263:Generated_Source\PSoC5/cyfitter_cfg.c **** 	for (timeout = 250u / 10u; (timeout > 0u) && (pllLock != 0x03u); timeout--)
 264:Generated_Source\PSoC5/cyfitter_cfg.c **** 	{ 
 265:Generated_Source\PSoC5/cyfitter_cfg.c **** 		pllLock = 0x03u & ((uint8)((uint8)pllLock << 1) | ((CY_GET_XTND_REG8((void CYFAR *)CYREG_FASTCLK_
 266:Generated_Source\PSoC5/cyfitter_cfg.c **** 		CyDelayCycles(10u * 48u); /* Delay 10us based on 48MHz clock */
 267:Generated_Source\PSoC5/cyfitter_cfg.c **** 	}
 268:Generated_Source\PSoC5/cyfitter_cfg.c **** 	/* If we ran out of time the PLL didn't lock so go to the error function */
 269:Generated_Source\PSoC5/cyfitter_cfg.c **** 	if (timeout == 0u)
 270:Generated_Source\PSoC5/cyfitter_cfg.c **** 	{
 271:Generated_Source\PSoC5/cyfitter_cfg.c **** 		CyClockStartupError(CYCLOCKSTART_PLL_ERROR);
 272:Generated_Source\PSoC5/cyfitter_cfg.c **** 	}
 273:Generated_Source\PSoC5/cyfitter_cfg.c **** 
 274:Generated_Source\PSoC5/cyfitter_cfg.c **** 	/* Configure Bus/Master Clock based on settings from Clock DWR */
 275:Generated_Source\PSoC5/cyfitter_cfg.c **** 	CY_SET_XTND_REG16((void CYFAR *)(CYREG_CLKDIST_MSTR0), 0x0100u);
 276:Generated_Source\PSoC5/cyfitter_cfg.c **** 	CY_SET_XTND_REG8((void CYFAR *)(CYREG_CLKDIST_MSTR0), 0x07u);
 277:Generated_Source\PSoC5/cyfitter_cfg.c **** 	CY_SET_XTND_REG8((void CYFAR *)(CYREG_CLKDIST_BCFG0), 0x00u);
 278:Generated_Source\PSoC5/cyfitter_cfg.c **** 	CY_SET_XTND_REG8((void CYFAR *)(CYREG_CLKDIST_BCFG2), 0x48u);
 279:Generated_Source\PSoC5/cyfitter_cfg.c **** 	CY_SET_XTND_REG8((void CYFAR *)(CYREG_CLKDIST_MSTR0), 0x00u);
 280:Generated_Source\PSoC5/cyfitter_cfg.c **** 
 281:Generated_Source\PSoC5/cyfitter_cfg.c **** 	/* Configure USB Clock based on settings from Clock DWR */
 282:Generated_Source\PSoC5/cyfitter_cfg.c **** 	CY_SET_XTND_REG8((void CYFAR *)(CYREG_CLKDIST_UCFG), 0x00u);
 283:Generated_Source\PSoC5/cyfitter_cfg.c **** 	CY_SET_XTND_REG8((void CYFAR *)(CYREG_CLKDIST_LD), 0x02u);
 284:Generated_Source\PSoC5/cyfitter_cfg.c **** 	CY_SET_XTND_REG8((void CYFAR *)(CYREG_CLKDIST_DLY1), 0x04u);
 285:Generated_Source\PSoC5/cyfitter_cfg.c **** 
 286:Generated_Source\PSoC5/cyfitter_cfg.c **** 	CY_SET_XTND_REG8((void CYFAR *)(CYREG_PM_ACT_CFG2), ((CY_GET_XTND_REG8((void CYFAR *)CYREG_PM_ACT_
 287:Generated_Source\PSoC5/cyfitter_cfg.c **** 	CY_SET_XTND_REG8((void CYFAR *)(CYREG_PM_ACT_CFG1), ((CY_GET_XTND_REG8((void CYFAR *)CYREG_PM_ACT_
 288:Generated_Source\PSoC5/cyfitter_cfg.c **** 	CY_SET_XTND_REG8((void CYFAR *)(CYREG_PM_ACT_CFG0), ((CY_GET_XTND_REG8((void CYFAR *)CYREG_PM_ACT_
 289:Generated_Source\PSoC5/cyfitter_cfg.c **** }
 290:Generated_Source\PSoC5/cyfitter_cfg.c **** 
 291:Generated_Source\PSoC5/cyfitter_cfg.c **** 
 292:Generated_Source\PSoC5/cyfitter_cfg.c **** /* Analog API Functions */
 293:Generated_Source\PSoC5/cyfitter_cfg.c **** 
 294:Generated_Source\PSoC5/cyfitter_cfg.c **** 
 295:Generated_Source\PSoC5/cyfitter_cfg.c **** /*******************************************************************************
 296:Generated_Source\PSoC5/cyfitter_cfg.c **** * Function Name: AnalogSetDefault
 297:Generated_Source\PSoC5/cyfitter_cfg.c **** ********************************************************************************
 298:Generated_Source\PSoC5/cyfitter_cfg.c **** *
 299:Generated_Source\PSoC5/cyfitter_cfg.c **** * Summary:
 300:Generated_Source\PSoC5/cyfitter_cfg.c **** *  Sets up the analog portions of the chip to default values based on chip
 301:Generated_Source\PSoC5/cyfitter_cfg.c **** *  configuration options from the project.
 302:Generated_Source\PSoC5/cyfitter_cfg.c **** *
ARM GAS  C:\Users\Admin\AppData\Local\Temp\cciaXUKk.s 			page 9


 303:Generated_Source\PSoC5/cyfitter_cfg.c **** * Parameters:
 304:Generated_Source\PSoC5/cyfitter_cfg.c **** *  void
 305:Generated_Source\PSoC5/cyfitter_cfg.c **** *
 306:Generated_Source\PSoC5/cyfitter_cfg.c **** * Return:
 307:Generated_Source\PSoC5/cyfitter_cfg.c **** *  void
 308:Generated_Source\PSoC5/cyfitter_cfg.c **** *
 309:Generated_Source\PSoC5/cyfitter_cfg.c **** *******************************************************************************/
 310:Generated_Source\PSoC5/cyfitter_cfg.c **** static void AnalogSetDefault(void);
 311:Generated_Source\PSoC5/cyfitter_cfg.c **** static void AnalogSetDefault(void)
 312:Generated_Source\PSoC5/cyfitter_cfg.c **** {
 150              		.loc 1 312 0
 151              		.cfi_startproc
 152              		@ args = 0, pretend = 0, frame = 0
 153              		@ frame_needed = 0, uses_anonymous_args = 0
 154 0000 F8B5     		push	{r3, r4, r5, r6, r7, lr}
 155              		.cfi_def_cfa_offset 24
 156              		.cfi_offset 3, -24
 157              		.cfi_offset 4, -20
 158              		.cfi_offset 5, -16
 159              		.cfi_offset 6, -12
 160              		.cfi_offset 7, -8
 161              		.cfi_offset 14, -4
 313:Generated_Source\PSoC5/cyfitter_cfg.c **** 	uint8 bg_xover_inl_trim = CY_GET_XTND_REG8((void CYFAR *)(CYREG_FLSHID_MFG_CFG_BG_XOVER_INL_TRIM +
 162              		.loc 1 313 0
 163 0002 1C4B     		ldr	r3, .L13
 164 0004 1B78     		ldrb	r3, [r3]	@ zero_extendqisi2
 165 0006 DBB2     		uxtb	r3, r3
 166              	.LVL15:
 314:Generated_Source\PSoC5/cyfitter_cfg.c **** 	uint8 cr4 = CY_GET_XTND_REG8((void CYFAR *)(CYREG_RESET_CR4));
 167              		.loc 1 314 0
 168 0008 1B4E     		ldr	r6, .L13+4
 169 000a 3478     		ldrb	r4, [r6]	@ zero_extendqisi2
 170 000c E4B2     		uxtb	r4, r4
 171              	.LVL16:
 315:Generated_Source\PSoC5/cyfitter_cfg.c **** 	uint8 cr5 = CY_GET_XTND_REG8((void CYFAR *)(CYREG_RESET_CR5));
 172              		.loc 1 315 0
 173 000e 1B4F     		ldr	r7, .L13+8
 174 0010 3D78     		ldrb	r5, [r7]	@ zero_extendqisi2
 175 0012 EDB2     		uxtb	r5, r5
 176              	.LVL17:
 316:Generated_Source\PSoC5/cyfitter_cfg.c **** 	CY_SET_XTND_REG8((void CYFAR *)(CYREG_BG_DFT0), (bg_xover_inl_trim & 0x07u));
 177              		.loc 1 316 0
 178 0014 03F00701 		and	r1, r3, #7
 179 0018 194A     		ldr	r2, .L13+12
 180 001a 1170     		strb	r1, [r2]
 317:Generated_Source\PSoC5/cyfitter_cfg.c **** 	CY_SET_XTND_REG8((void CYFAR *)(CYREG_BG_DFT1), ((bg_xover_inl_trim >> 4) & 0x0Fu));
 181              		.loc 1 317 0
 182 001c 1B09     		lsrs	r3, r3, #4
 183              	.LVL18:
 184 001e 0132     		adds	r2, r2, #1
 185 0020 1370     		strb	r3, [r2]
 318:Generated_Source\PSoC5/cyfitter_cfg.c **** 	/* Disable PRES while setting up SAR voltage reference */
 319:Generated_Source\PSoC5/cyfitter_cfg.c **** 	CY_SET_XTND_REG8((void CYFAR *)(CYREG_RESET_CR4), (cr4 | 0x03u));
 186              		.loc 1 319 0
 187 0022 44F00303 		orr	r3, r4, #3
 188 0026 3370     		strb	r3, [r6]
 320:Generated_Source\PSoC5/cyfitter_cfg.c **** 	CY_SET_XTND_REG8((void CYFAR *)(CYREG_RESET_CR5), (cr5 | 0x03u));
ARM GAS  C:\Users\Admin\AppData\Local\Temp\cciaXUKk.s 			page 10


 189              		.loc 1 320 0
 190 0028 45F00303 		orr	r3, r5, #3
 191 002c 3B70     		strb	r3, [r7]
 321:Generated_Source\PSoC5/cyfitter_cfg.c **** 	CY_SET_XTND_REG8((void CYFAR *)CYREG_PRT2_AG, 0x06u);
 192              		.loc 1 321 0
 193 002e 0622     		movs	r2, #6
 194 0030 144B     		ldr	r3, .L13+16
 195 0032 1A70     		strb	r2, [r3]
 322:Generated_Source\PSoC5/cyfitter_cfg.c **** 	CY_SET_XTND_REG8((void CYFAR *)CYREG_SAR0_CSR1, 0x40u);
 196              		.loc 1 322 0
 197 0034 4023     		movs	r3, #64
 198 0036 144A     		ldr	r2, .L13+20
 199 0038 1370     		strb	r3, [r2]
 323:Generated_Source\PSoC5/cyfitter_cfg.c **** 	CY_SET_XTND_REG8((void CYFAR *)CYREG_SAR0_CSR3, 0x40u);
 200              		.loc 1 323 0
 201 003a 0232     		adds	r2, r2, #2
 202 003c 1370     		strb	r3, [r2]
 324:Generated_Source\PSoC5/cyfitter_cfg.c **** 	CY_SET_XTND_REG8((void CYFAR *)CYREG_SAR1_CSR1, 0x40u);
 203              		.loc 1 324 0
 204 003e 0632     		adds	r2, r2, #6
 205 0040 1370     		strb	r3, [r2]
 325:Generated_Source\PSoC5/cyfitter_cfg.c **** 	CY_SET_XTND_REG8((void CYFAR *)CYREG_SAR1_CSR3, 0x40u);
 206              		.loc 1 325 0
 207 0042 0232     		adds	r2, r2, #2
 208 0044 1370     		strb	r3, [r2]
 326:Generated_Source\PSoC5/cyfitter_cfg.c **** 	CY_SET_XTND_REG8((void CYFAR *)CYREG_SAR0_SW0, 0x04u);
 209              		.loc 1 326 0
 210 0046 0422     		movs	r2, #4
 211 0048 104B     		ldr	r3, .L13+24
 212 004a 1A70     		strb	r2, [r3]
 327:Generated_Source\PSoC5/cyfitter_cfg.c **** 	CY_SET_XTND_REG8((void CYFAR *)CYREG_SAR0_SW3, 0x20u);
 213              		.loc 1 327 0
 214 004c 2023     		movs	r3, #32
 215 004e 104A     		ldr	r2, .L13+28
 216 0050 1370     		strb	r3, [r2]
 328:Generated_Source\PSoC5/cyfitter_cfg.c **** 	CY_SET_XTND_REG8((void CYFAR *)CYREG_SAR1_SW0, 0x02u);
 217              		.loc 1 328 0
 218 0052 0221     		movs	r1, #2
 219 0054 0532     		adds	r2, r2, #5
 220 0056 1170     		strb	r1, [r2]
 329:Generated_Source\PSoC5/cyfitter_cfg.c **** 	CY_SET_XTND_REG8((void CYFAR *)CYREG_SAR1_SW3, 0x20u);
 221              		.loc 1 329 0
 222 0058 0332     		adds	r2, r2, #3
 223 005a 1370     		strb	r3, [r2]
 330:Generated_Source\PSoC5/cyfitter_cfg.c **** 	CY_SET_XTND_REG8((void CYFAR *)CYREG_BUS_SW0, 0x12u);
 224              		.loc 1 330 0
 225 005c 1222     		movs	r2, #18
 226 005e 0D4B     		ldr	r3, .L13+32
 227 0060 1A70     		strb	r2, [r3]
 331:Generated_Source\PSoC5/cyfitter_cfg.c **** 	CyDelayUs(10u); /* Allow vref to settle before re-enabling PRES */
 228              		.loc 1 331 0
 229 0062 0A20     		movs	r0, #10
 230 0064 FFF7FEFF 		bl	CyDelayUs
 231              	.LVL19:
 332:Generated_Source\PSoC5/cyfitter_cfg.c **** 	CY_SET_XTND_REG8((void CYFAR *)(CYREG_RESET_CR5), (cr5));
 232              		.loc 1 332 0
 233 0068 3D70     		strb	r5, [r7]
ARM GAS  C:\Users\Admin\AppData\Local\Temp\cciaXUKk.s 			page 11


 333:Generated_Source\PSoC5/cyfitter_cfg.c **** 	CY_SET_XTND_REG8((void CYFAR *)(CYREG_RESET_CR4), (cr4));
 234              		.loc 1 333 0
 235 006a 3470     		strb	r4, [r6]
 334:Generated_Source\PSoC5/cyfitter_cfg.c **** 	CY_SET_XTND_REG8((void CYFAR *)CYREG_PUMP_CR0, 0x44u);
 236              		.loc 1 334 0
 237 006c 4422     		movs	r2, #68
 238 006e 0A4B     		ldr	r3, .L13+36
 239 0070 1A70     		strb	r2, [r3]
 240 0072 F8BD     		pop	{r3, r4, r5, r6, r7, pc}
 241              	.LVL20:
 242              	.L14:
 243              		.align	2
 244              	.L13:
 245 0074 CF010049 		.word	1224737231
 246 0078 F8460040 		.word	1073759992
 247 007c F9460040 		.word	1073759993
 248 0080 6E580040 		.word	1073764462
 249 0084 2D510040 		.word	1073762605
 250 0088 01590040 		.word	1073764609
 251 008c 205B0040 		.word	1073765152
 252 0090 235B0040 		.word	1073765155
 253 0094 585B0040 		.word	1073765208
 254 0098 76580040 		.word	1073764470
 255              		.cfi_endproc
 256              	.LFE6:
 257              		.size	AnalogSetDefault, .-AnalogSetDefault
 258              		.section	.text.CYCONFIGCPY,"ax",%progbits
 259              		.align	2
 260              		.thumb
 261              		.thumb_func
 262              		.type	CYCONFIGCPY, %function
 263              	CYCONFIGCPY:
 264              	.LFB1:
  85:Generated_Source\PSoC5/cyfitter_cfg.c **** 	(void)memcpy(dest, src, n);
 265              		.loc 1 85 0
 266              		.cfi_startproc
 267              		@ args = 0, pretend = 0, frame = 0
 268              		@ frame_needed = 0, uses_anonymous_args = 0
 269              	.LVL21:
 270 0000 08B5     		push	{r3, lr}
 271              		.cfi_def_cfa_offset 8
 272              		.cfi_offset 3, -8
 273              		.cfi_offset 14, -4
  86:Generated_Source\PSoC5/cyfitter_cfg.c **** }
 274              		.loc 1 86 0
 275 0002 FFF7FEFF 		bl	memcpy
 276              	.LVL22:
 277 0006 08BD     		pop	{r3, pc}
 278              		.cfi_endproc
 279              	.LFE1:
 280              		.size	CYCONFIGCPY, .-CYCONFIGCPY
 281              		.section	.text.ClockSetup,"ax",%progbits
 282              		.align	2
 283              		.thumb
 284              		.thumb_func
 285              		.type	ClockSetup, %function
 286              	ClockSetup:
ARM GAS  C:\Users\Admin\AppData\Local\Temp\cciaXUKk.s 			page 12


 287              	.LFB5:
 237:Generated_Source\PSoC5/cyfitter_cfg.c **** 	uint32 timeout;
 288              		.loc 1 237 0
 289              		.cfi_startproc
 290              		@ args = 0, pretend = 0, frame = 0
 291              		@ frame_needed = 0, uses_anonymous_args = 0
 292 0000 38B5     		push	{r3, r4, r5, lr}
 293              		.cfi_def_cfa_offset 16
 294              		.cfi_offset 3, -16
 295              		.cfi_offset 4, -12
 296              		.cfi_offset 5, -8
 297              		.cfi_offset 14, -4
 243:Generated_Source\PSoC5/cyfitter_cfg.c **** 	CY_SET_XTND_REG8((void CYFAR *)(CYREG_CLKDIST_DCFG0_CFG0 + 0x2u), 0x50u);
 298              		.loc 1 243 0
 299 0002 0024     		movs	r4, #0
 300 0004 2F4B     		ldr	r3, .L23
 301 0006 1C80     		strh	r4, [r3]	@ movhi
 244:Generated_Source\PSoC5/cyfitter_cfg.c **** 	CY_SET_XTND_REG16((void CYFAR *)(CYREG_CLKDIST_DCFG1_CFG0), 0x0257u);
 302              		.loc 1 244 0
 303 0008 5022     		movs	r2, #80
 304 000a 0233     		adds	r3, r3, #2
 305 000c 1A70     		strb	r2, [r3]
 245:Generated_Source\PSoC5/cyfitter_cfg.c **** 	CY_SET_XTND_REG8((void CYFAR *)(CYREG_CLKDIST_DCFG1_CFG0 + 0x2u), 0x18u);
 306              		.loc 1 245 0
 307 000e 40F25722 		movw	r2, #599
 308 0012 0233     		adds	r3, r3, #2
 309 0014 1A80     		strh	r2, [r3]	@ movhi
 246:Generated_Source\PSoC5/cyfitter_cfg.c **** 
 310              		.loc 1 246 0
 311 0016 1822     		movs	r2, #24
 312 0018 0233     		adds	r3, r3, #2
 313 001a 1A70     		strb	r2, [r3]
 249:Generated_Source\PSoC5/cyfitter_cfg.c **** 
 314              		.loc 1 249 0
 315 001c 0C22     		movs	r2, #12
 316 001e 2A49     		ldr	r1, .L23+4
 317 0020 2A48     		ldr	r0, .L23+8
 318 0022 FFF7FEFF 		bl	CYCONFIGCPY
 319              	.LVL23:
 252:Generated_Source\PSoC5/cyfitter_cfg.c **** 
 320              		.loc 1 252 0
 321 0026 0622     		movs	r2, #6
 322 0028 294B     		ldr	r3, .L23+12
 323 002a 1A70     		strb	r2, [r3]
 255:Generated_Source\PSoC5/cyfitter_cfg.c **** 	CY_SET_XTND_REG8((void CYFAR *)(CYREG_IMO_TR1), (CY_GET_XTND_REG8((void CYFAR *)CYREG_FLSHID_CUST_
 324              		.loc 1 255 0
 325 002c 5222     		movs	r2, #82
 326 002e A3F58073 		sub	r3, r3, #256
 327 0032 1A70     		strb	r2, [r3]
 256:Generated_Source\PSoC5/cyfitter_cfg.c **** 
 328              		.loc 1 256 0
 329 0034 274B     		ldr	r3, .L23+16
 330 0036 1B78     		ldrb	r3, [r3]	@ zero_extendqisi2
 331 0038 DBB2     		uxtb	r3, r3
 332 003a 274A     		ldr	r2, .L23+20
 333 003c 1370     		strb	r3, [r2]
 259:Generated_Source\PSoC5/cyfitter_cfg.c **** 	CY_SET_XTND_REG16((void CYFAR *)(CYREG_FASTCLK_PLL_CFG0), 0x1251u);
ARM GAS  C:\Users\Admin\AppData\Local\Temp\cciaXUKk.s 			page 13


 334              		.loc 1 259 0
 335 003e 4FF4E162 		mov	r2, #1800
 336 0042 264B     		ldr	r3, .L23+24
 337 0044 1A80     		strh	r2, [r3]	@ movhi
 260:Generated_Source\PSoC5/cyfitter_cfg.c **** 	/* Wait up to 250us for the PLL to lock */
 338              		.loc 1 260 0
 339 0046 41F25122 		movw	r2, #4689
 340 004a 023B     		subs	r3, r3, #2
 341 004c 1A80     		strh	r2, [r3]	@ movhi
 342              	.LVL24:
 263:Generated_Source\PSoC5/cyfitter_cfg.c **** 	{ 
 343              		.loc 1 263 0
 344 004e 1925     		movs	r5, #25
 345 0050 0CE0     		b	.L18
 346              	.LVL25:
 347              	.L20:
 265:Generated_Source\PSoC5/cyfitter_cfg.c **** 		CyDelayCycles(10u * 48u); /* Delay 10us based on 48MHz clock */
 348              		.loc 1 265 0 discriminator 4
 349 0052 234B     		ldr	r3, .L23+28
 350 0054 1B78     		ldrb	r3, [r3]	@ zero_extendqisi2
 351 0056 03F00103 		and	r3, r3, #1
 352 005a 43EA4404 		orr	r4, r3, r4, lsl #1
 353              	.LVL26:
 354 005e 04F00304 		and	r4, r4, #3
 355              	.LVL27:
 266:Generated_Source\PSoC5/cyfitter_cfg.c **** 	}
 356              		.loc 1 266 0 discriminator 4
 357 0062 4FF4F070 		mov	r0, #480
 358 0066 FFF7FEFF 		bl	CyDelayCycles
 359              	.LVL28:
 263:Generated_Source\PSoC5/cyfitter_cfg.c **** 	{ 
 360              		.loc 1 263 0 discriminator 4
 361 006a 013D     		subs	r5, r5, #1
 362              	.LVL29:
 363              	.L18:
 263:Generated_Source\PSoC5/cyfitter_cfg.c **** 	{ 
 364              		.loc 1 263 0 is_stmt 0 discriminator 1
 365 006c 0DB1     		cbz	r5, .L19
 263:Generated_Source\PSoC5/cyfitter_cfg.c **** 	{ 
 366              		.loc 1 263 0 discriminator 3
 367 006e 032C     		cmp	r4, #3
 368 0070 EFD1     		bne	.L20
 369              	.L19:
 269:Generated_Source\PSoC5/cyfitter_cfg.c **** 	{
 370              		.loc 1 269 0 is_stmt 1
 371 0072 15B9     		cbnz	r5, .L21
 271:Generated_Source\PSoC5/cyfitter_cfg.c **** 	}
 372              		.loc 1 271 0
 373 0074 0320     		movs	r0, #3
 374 0076 FFF7FEFF 		bl	CyClockStartupError
 375              	.LVL30:
 376              	.L21:
 275:Generated_Source\PSoC5/cyfitter_cfg.c **** 	CY_SET_XTND_REG8((void CYFAR *)(CYREG_CLKDIST_MSTR0), 0x07u);
 377              		.loc 1 275 0
 378 007a 1A4A     		ldr	r2, .L23+32
 379 007c 4FF48073 		mov	r3, #256
 380 0080 1380     		strh	r3, [r2]	@ movhi
ARM GAS  C:\Users\Admin\AppData\Local\Temp\cciaXUKk.s 			page 14


 276:Generated_Source\PSoC5/cyfitter_cfg.c **** 	CY_SET_XTND_REG8((void CYFAR *)(CYREG_CLKDIST_BCFG0), 0x00u);
 381              		.loc 1 276 0
 382 0082 0723     		movs	r3, #7
 383 0084 1370     		strb	r3, [r2]
 277:Generated_Source\PSoC5/cyfitter_cfg.c **** 	CY_SET_XTND_REG8((void CYFAR *)(CYREG_CLKDIST_BCFG2), 0x48u);
 384              		.loc 1 277 0
 385 0086 0023     		movs	r3, #0
 386 0088 1749     		ldr	r1, .L23+36
 387 008a 0B70     		strb	r3, [r1]
 278:Generated_Source\PSoC5/cyfitter_cfg.c **** 	CY_SET_XTND_REG8((void CYFAR *)(CYREG_CLKDIST_MSTR0), 0x00u);
 388              		.loc 1 278 0
 389 008c 4820     		movs	r0, #72
 390 008e 0231     		adds	r1, r1, #2
 391 0090 0870     		strb	r0, [r1]
 279:Generated_Source\PSoC5/cyfitter_cfg.c **** 
 392              		.loc 1 279 0
 393 0092 1370     		strb	r3, [r2]
 282:Generated_Source\PSoC5/cyfitter_cfg.c **** 	CY_SET_XTND_REG8((void CYFAR *)(CYREG_CLKDIST_LD), 0x02u);
 394              		.loc 1 282 0
 395 0094 0532     		adds	r2, r2, #5
 396 0096 1370     		strb	r3, [r2]
 283:Generated_Source\PSoC5/cyfitter_cfg.c **** 	CY_SET_XTND_REG8((void CYFAR *)(CYREG_CLKDIST_DLY1), 0x04u);
 397              		.loc 1 283 0
 398 0098 0222     		movs	r2, #2
 399 009a 144B     		ldr	r3, .L23+40
 400 009c 1A70     		strb	r2, [r3]
 284:Generated_Source\PSoC5/cyfitter_cfg.c **** 
 401              		.loc 1 284 0
 402 009e 0422     		movs	r2, #4
 403 00a0 0A33     		adds	r3, r3, #10
 404 00a2 1A70     		strb	r2, [r3]
 286:Generated_Source\PSoC5/cyfitter_cfg.c **** 	CY_SET_XTND_REG8((void CYFAR *)(CYREG_PM_ACT_CFG1), ((CY_GET_XTND_REG8((void CYFAR *)CYREG_PM_ACT_
 405              		.loc 1 286 0
 406 00a4 124A     		ldr	r2, .L23+44
 407 00a6 1378     		ldrb	r3, [r2]	@ zero_extendqisi2
 408 00a8 43F00303 		orr	r3, r3, #3
 409 00ac 1370     		strb	r3, [r2]
 287:Generated_Source\PSoC5/cyfitter_cfg.c **** 	CY_SET_XTND_REG8((void CYFAR *)(CYREG_PM_ACT_CFG0), ((CY_GET_XTND_REG8((void CYFAR *)CYREG_PM_ACT_
 410              		.loc 1 287 0
 411 00ae 013A     		subs	r2, r2, #1
 412 00b0 1378     		ldrb	r3, [r2]	@ zero_extendqisi2
 413 00b2 43F00703 		orr	r3, r3, #7
 414 00b6 1370     		strb	r3, [r2]
 288:Generated_Source\PSoC5/cyfitter_cfg.c **** }
 415              		.loc 1 288 0
 416 00b8 013A     		subs	r2, r2, #1
 417 00ba 1378     		ldrb	r3, [r2]	@ zero_extendqisi2
 418 00bc 43F08003 		orr	r3, r3, #128
 419 00c0 1370     		strb	r3, [r2]
 420 00c2 38BD     		pop	{r3, r4, r5, pc}
 421              	.LVL31:
 422              	.L24:
 423              		.align	2
 424              	.L23:
 425 00c4 80400040 		.word	1073758336
 426 00c8 5C020048 		.word	1207960156
 427 00cc 00410040 		.word	1073758464
ARM GAS  C:\Users\Admin\AppData\Local\Temp\cciaXUKk.s 			page 15


 428 00d0 00430040 		.word	1073758976
 429 00d4 0F010049 		.word	1224737039
 430 00d8 A1460040 		.word	1073759905
 431 00dc 22420040 		.word	1073758754
 432 00e0 25420040 		.word	1073758757
 433 00e4 04400040 		.word	1073758212
 434 00e8 06400040 		.word	1073758214
 435 00ec 01400040 		.word	1073758209
 436 00f0 A2430040 		.word	1073759138
 437              		.cfi_endproc
 438              	.LFE5:
 439              		.size	ClockSetup, .-ClockSetup
 440              		.section	.text.SetAnalogRoutingPumps,"ax",%progbits
 441              		.align	2
 442              		.global	SetAnalogRoutingPumps
 443              		.thumb
 444              		.thumb_func
 445              		.type	SetAnalogRoutingPumps, %function
 446              	SetAnalogRoutingPumps:
 447              	.LFB7:
 335:Generated_Source\PSoC5/cyfitter_cfg.c **** }
 336:Generated_Source\PSoC5/cyfitter_cfg.c **** 
 337:Generated_Source\PSoC5/cyfitter_cfg.c **** 
 338:Generated_Source\PSoC5/cyfitter_cfg.c **** /*******************************************************************************
 339:Generated_Source\PSoC5/cyfitter_cfg.c **** * Function Name: SetAnalogRoutingPumps
 340:Generated_Source\PSoC5/cyfitter_cfg.c **** ********************************************************************************
 341:Generated_Source\PSoC5/cyfitter_cfg.c **** *
 342:Generated_Source\PSoC5/cyfitter_cfg.c **** * Summary:
 343:Generated_Source\PSoC5/cyfitter_cfg.c **** * Enables or disables the analog pumps feeding analog routing switches.
 344:Generated_Source\PSoC5/cyfitter_cfg.c **** * Intended to be called at startup, based on the Vdda system configuration;
 345:Generated_Source\PSoC5/cyfitter_cfg.c **** * may be called during operation when the user informs us that the Vdda voltage
 346:Generated_Source\PSoC5/cyfitter_cfg.c **** * crossed the pump threshold.
 347:Generated_Source\PSoC5/cyfitter_cfg.c **** *
 348:Generated_Source\PSoC5/cyfitter_cfg.c **** * Parameters:
 349:Generated_Source\PSoC5/cyfitter_cfg.c **** *  enabled - 1 to enable the pumps, 0 to disable the pumps
 350:Generated_Source\PSoC5/cyfitter_cfg.c **** *
 351:Generated_Source\PSoC5/cyfitter_cfg.c **** * Return:
 352:Generated_Source\PSoC5/cyfitter_cfg.c **** *  void
 353:Generated_Source\PSoC5/cyfitter_cfg.c **** *
 354:Generated_Source\PSoC5/cyfitter_cfg.c **** *******************************************************************************/
 355:Generated_Source\PSoC5/cyfitter_cfg.c **** void SetAnalogRoutingPumps(uint8 enabled)
 356:Generated_Source\PSoC5/cyfitter_cfg.c **** {
 448              		.loc 1 356 0
 449              		.cfi_startproc
 450              		@ args = 0, pretend = 0, frame = 0
 451              		@ frame_needed = 0, uses_anonymous_args = 0
 452              		@ link register save eliminated.
 453              	.LVL32:
 357:Generated_Source\PSoC5/cyfitter_cfg.c **** 	uint8 regValue = CY_GET_XTND_REG8((void CYFAR *)CYREG_PUMP_CR0);
 454              		.loc 1 357 0
 455 0000 054B     		ldr	r3, .L28
 456 0002 1B78     		ldrb	r3, [r3]	@ zero_extendqisi2
 457 0004 DBB2     		uxtb	r3, r3
 458              	.LVL33:
 358:Generated_Source\PSoC5/cyfitter_cfg.c **** 	if (enabled != 0u)
 459              		.loc 1 358 0
 460 0006 10B1     		cbz	r0, .L26
ARM GAS  C:\Users\Admin\AppData\Local\Temp\cciaXUKk.s 			page 16


 359:Generated_Source\PSoC5/cyfitter_cfg.c **** 	{
 360:Generated_Source\PSoC5/cyfitter_cfg.c **** 		regValue |= 0x22u;
 461              		.loc 1 360 0
 462 0008 43F02203 		orr	r3, r3, #34
 463              	.LVL34:
 464 000c 01E0     		b	.L27
 465              	.L26:
 361:Generated_Source\PSoC5/cyfitter_cfg.c **** 	}
 362:Generated_Source\PSoC5/cyfitter_cfg.c **** 	else
 363:Generated_Source\PSoC5/cyfitter_cfg.c **** 	{
 364:Generated_Source\PSoC5/cyfitter_cfg.c **** 		regValue &= (uint8)~0x22u;
 466              		.loc 1 364 0
 467 000e 03F0DD03 		and	r3, r3, #221
 468              	.LVL35:
 469              	.L27:
 365:Generated_Source\PSoC5/cyfitter_cfg.c **** 	}
 366:Generated_Source\PSoC5/cyfitter_cfg.c **** 	CY_SET_XTND_REG8((void CYFAR *)CYREG_PUMP_CR0, regValue);
 470              		.loc 1 366 0
 471 0012 014A     		ldr	r2, .L28
 472 0014 1370     		strb	r3, [r2]
 473 0016 7047     		bx	lr
 474              	.L29:
 475              		.align	2
 476              	.L28:
 477 0018 76580040 		.word	1073764470
 478              		.cfi_endproc
 479              	.LFE7:
 480              		.size	SetAnalogRoutingPumps, .-SetAnalogRoutingPumps
 481              		.section	.text.Mux_Set,"ax",%progbits
 482              		.align	2
 483              		.global	Mux_Set
 484              		.thumb
 485              		.thumb_func
 486              		.type	Mux_Set, %function
 487              	Mux_Set:
 488              	.LFB8:
 367:Generated_Source\PSoC5/cyfitter_cfg.c **** }
 368:Generated_Source\PSoC5/cyfitter_cfg.c **** 
 369:Generated_Source\PSoC5/cyfitter_cfg.c **** 
 370:Generated_Source\PSoC5/cyfitter_cfg.c **** #define CY_AMUX_UNUSED CYREG_BOOST_SR
 371:Generated_Source\PSoC5/cyfitter_cfg.c **** /* This is an implementation detail of the AMux. Code that depends on it may be
 372:Generated_Source\PSoC5/cyfitter_cfg.c ****    incompatible with other versions of PSoC Creator. */
 373:Generated_Source\PSoC5/cyfitter_cfg.c **** uint8 CYXDATA * const CYCODE Mux__addrTable[4] = {
 374:Generated_Source\PSoC5/cyfitter_cfg.c **** 	(uint8 CYXDATA *)CYREG_PRT3_AG, (uint8 CYXDATA *)CYREG_DSM0_SW0, 
 375:Generated_Source\PSoC5/cyfitter_cfg.c **** 	(uint8 CYXDATA *)CYREG_PRT0_AG, (uint8 CYXDATA *)CYREG_DSM0_SW0, 
 376:Generated_Source\PSoC5/cyfitter_cfg.c **** };
 377:Generated_Source\PSoC5/cyfitter_cfg.c **** 
 378:Generated_Source\PSoC5/cyfitter_cfg.c **** /* This is an implementation detail of the AMux. Code that depends on it may be
 379:Generated_Source\PSoC5/cyfitter_cfg.c ****    incompatible with other versions of PSoC Creator. */
 380:Generated_Source\PSoC5/cyfitter_cfg.c **** const uint8 CYCODE Mux__maskTable[4] = {
 381:Generated_Source\PSoC5/cyfitter_cfg.c **** 	0x01u, 0x10u, 
 382:Generated_Source\PSoC5/cyfitter_cfg.c **** 	0x40u, 0x40u, 
 383:Generated_Source\PSoC5/cyfitter_cfg.c **** };
 384:Generated_Source\PSoC5/cyfitter_cfg.c **** 
 385:Generated_Source\PSoC5/cyfitter_cfg.c **** /*******************************************************************************
 386:Generated_Source\PSoC5/cyfitter_cfg.c **** * Function Name: Mux_Set
 387:Generated_Source\PSoC5/cyfitter_cfg.c **** ********************************************************************************
ARM GAS  C:\Users\Admin\AppData\Local\Temp\cciaXUKk.s 			page 17


 388:Generated_Source\PSoC5/cyfitter_cfg.c **** * Summary:
 389:Generated_Source\PSoC5/cyfitter_cfg.c **** *  This function is used to set a particular channel as active on the AMux.
 390:Generated_Source\PSoC5/cyfitter_cfg.c **** *
 391:Generated_Source\PSoC5/cyfitter_cfg.c **** * Parameters:  
 392:Generated_Source\PSoC5/cyfitter_cfg.c **** *   channel - The mux channel input to set as active
 393:Generated_Source\PSoC5/cyfitter_cfg.c **** *
 394:Generated_Source\PSoC5/cyfitter_cfg.c **** * Return:
 395:Generated_Source\PSoC5/cyfitter_cfg.c **** *   void
 396:Generated_Source\PSoC5/cyfitter_cfg.c **** *
 397:Generated_Source\PSoC5/cyfitter_cfg.c **** *******************************************************************************/
 398:Generated_Source\PSoC5/cyfitter_cfg.c **** void Mux_Set(uint8 channel)
 399:Generated_Source\PSoC5/cyfitter_cfg.c **** {
 489              		.loc 1 399 0
 490              		.cfi_startproc
 491              		@ args = 0, pretend = 0, frame = 0
 492              		@ frame_needed = 0, uses_anonymous_args = 0
 493              		@ link register save eliminated.
 494              	.LVL36:
 400:Generated_Source\PSoC5/cyfitter_cfg.c **** 	if (channel < 2)
 495              		.loc 1 400 0
 496 0000 0128     		cmp	r0, #1
 497 0002 14D8     		bhi	.L34
 399:Generated_Source\PSoC5/cyfitter_cfg.c **** 	if (channel < 2)
 498              		.loc 1 399 0
 499 0004 10B4     		push	{r4}
 500              		.cfi_def_cfa_offset 4
 501              		.cfi_offset 4, -4
 401:Generated_Source\PSoC5/cyfitter_cfg.c **** 	{
 402:Generated_Source\PSoC5/cyfitter_cfg.c **** 		channel += channel;
 502              		.loc 1 402 0
 503 0006 4000     		lsls	r0, r0, #1
 504              	.LVL37:
 505 0008 C0B2     		uxtb	r0, r0
 506              	.LVL38:
 403:Generated_Source\PSoC5/cyfitter_cfg.c **** 		*Mux__addrTable[channel] |= Mux__maskTable[channel];
 507              		.loc 1 403 0
 508 000a 094B     		ldr	r3, .L35
 509 000c 53F82010 		ldr	r1, [r3, r0, lsl #2]
 510 0010 1A18     		adds	r2, r3, r0
 511 0012 147C     		ldrb	r4, [r2, #16]	@ zero_extendqisi2
 512 0014 0A78     		ldrb	r2, [r1]	@ zero_extendqisi2
 513 0016 2243     		orrs	r2, r2, r4
 514 0018 0A70     		strb	r2, [r1]
 404:Generated_Source\PSoC5/cyfitter_cfg.c **** 		channel++;
 515              		.loc 1 404 0
 516 001a 0130     		adds	r0, r0, #1
 517              	.LVL39:
 518 001c C0B2     		uxtb	r0, r0
 519              	.LVL40:
 405:Generated_Source\PSoC5/cyfitter_cfg.c **** 		*Mux__addrTable[channel] |= Mux__maskTable[channel];
 520              		.loc 1 405 0
 521 001e 53F82020 		ldr	r2, [r3, r0, lsl #2]
 522 0022 1844     		add	r0, r0, r3
 523              	.LVL41:
 524 0024 017C     		ldrb	r1, [r0, #16]	@ zero_extendqisi2
 525 0026 1378     		ldrb	r3, [r2]	@ zero_extendqisi2
 526 0028 0B43     		orrs	r3, r3, r1
ARM GAS  C:\Users\Admin\AppData\Local\Temp\cciaXUKk.s 			page 18


 527 002a 1370     		strb	r3, [r2]
 406:Generated_Source\PSoC5/cyfitter_cfg.c **** 	}
 407:Generated_Source\PSoC5/cyfitter_cfg.c **** }
 528              		.loc 1 407 0
 529 002c 10BC     		pop	{r4}
 530              		.cfi_restore 4
 531              		.cfi_def_cfa_offset 0
 532              	.LVL42:
 533              	.L34:
 534 002e 7047     		bx	lr
 535              	.L36:
 536              		.align	2
 537              	.L35:
 538 0030 00000000 		.word	.LANCHOR0
 539              		.cfi_endproc
 540              	.LFE8:
 541              		.size	Mux_Set, .-Mux_Set
 542              		.section	.text.Mux_Unset,"ax",%progbits
 543              		.align	2
 544              		.global	Mux_Unset
 545              		.thumb
 546              		.thumb_func
 547              		.type	Mux_Unset, %function
 548              	Mux_Unset:
 549              	.LFB9:
 408:Generated_Source\PSoC5/cyfitter_cfg.c **** 
 409:Generated_Source\PSoC5/cyfitter_cfg.c **** /*******************************************************************************
 410:Generated_Source\PSoC5/cyfitter_cfg.c **** * Function Name: Mux_Unset
 411:Generated_Source\PSoC5/cyfitter_cfg.c **** ********************************************************************************
 412:Generated_Source\PSoC5/cyfitter_cfg.c **** * Summary:
 413:Generated_Source\PSoC5/cyfitter_cfg.c **** *  This function is used to clear a particular channel from being active on the
 414:Generated_Source\PSoC5/cyfitter_cfg.c **** *  AMux.
 415:Generated_Source\PSoC5/cyfitter_cfg.c **** *
 416:Generated_Source\PSoC5/cyfitter_cfg.c **** * Parameters:  
 417:Generated_Source\PSoC5/cyfitter_cfg.c **** *   channel - The mux channel input to mark inactive
 418:Generated_Source\PSoC5/cyfitter_cfg.c **** *
 419:Generated_Source\PSoC5/cyfitter_cfg.c **** * Return:
 420:Generated_Source\PSoC5/cyfitter_cfg.c **** *   void
 421:Generated_Source\PSoC5/cyfitter_cfg.c **** *
 422:Generated_Source\PSoC5/cyfitter_cfg.c **** *******************************************************************************/
 423:Generated_Source\PSoC5/cyfitter_cfg.c **** void Mux_Unset(uint8 channel)
 424:Generated_Source\PSoC5/cyfitter_cfg.c **** {
 550              		.loc 1 424 0
 551              		.cfi_startproc
 552              		@ args = 0, pretend = 0, frame = 0
 553              		@ frame_needed = 0, uses_anonymous_args = 0
 554              		@ link register save eliminated.
 555              	.LVL43:
 425:Generated_Source\PSoC5/cyfitter_cfg.c **** 	if (channel < 2)
 556              		.loc 1 425 0
 557 0000 0128     		cmp	r0, #1
 558 0002 16D8     		bhi	.L41
 424:Generated_Source\PSoC5/cyfitter_cfg.c **** 	if (channel < 2)
 559              		.loc 1 424 0
 560 0004 10B4     		push	{r4}
 561              		.cfi_def_cfa_offset 4
 562              		.cfi_offset 4, -4
ARM GAS  C:\Users\Admin\AppData\Local\Temp\cciaXUKk.s 			page 19


 426:Generated_Source\PSoC5/cyfitter_cfg.c **** 	{
 427:Generated_Source\PSoC5/cyfitter_cfg.c **** 		channel += channel;
 563              		.loc 1 427 0
 564 0006 4000     		lsls	r0, r0, #1
 565              	.LVL44:
 566 0008 C0B2     		uxtb	r0, r0
 567              	.LVL45:
 428:Generated_Source\PSoC5/cyfitter_cfg.c **** 		*Mux__addrTable[channel] &= (uint8)~Mux__maskTable[channel];
 568              		.loc 1 428 0
 569 000a 0A4B     		ldr	r3, .L42
 570 000c 53F82010 		ldr	r1, [r3, r0, lsl #2]
 571 0010 1A18     		adds	r2, r3, r0
 572 0012 147C     		ldrb	r4, [r2, #16]	@ zero_extendqisi2
 573 0014 0A78     		ldrb	r2, [r1]	@ zero_extendqisi2
 574 0016 22EA0402 		bic	r2, r2, r4
 575 001a 0A70     		strb	r2, [r1]
 429:Generated_Source\PSoC5/cyfitter_cfg.c **** 		channel++;
 576              		.loc 1 429 0
 577 001c 0130     		adds	r0, r0, #1
 578              	.LVL46:
 579 001e C0B2     		uxtb	r0, r0
 580              	.LVL47:
 430:Generated_Source\PSoC5/cyfitter_cfg.c **** 		*Mux__addrTable[channel] &= (uint8)~Mux__maskTable[channel];
 581              		.loc 1 430 0
 582 0020 53F82020 		ldr	r2, [r3, r0, lsl #2]
 583 0024 1844     		add	r0, r0, r3
 584              	.LVL48:
 585 0026 017C     		ldrb	r1, [r0, #16]	@ zero_extendqisi2
 586 0028 1378     		ldrb	r3, [r2]	@ zero_extendqisi2
 587 002a 23EA0103 		bic	r3, r3, r1
 588 002e 1370     		strb	r3, [r2]
 431:Generated_Source\PSoC5/cyfitter_cfg.c **** 	}
 432:Generated_Source\PSoC5/cyfitter_cfg.c **** }
 589              		.loc 1 432 0
 590 0030 10BC     		pop	{r4}
 591              		.cfi_restore 4
 592              		.cfi_def_cfa_offset 0
 593              	.LVL49:
 594              	.L41:
 595 0032 7047     		bx	lr
 596              	.L43:
 597              		.align	2
 598              	.L42:
 599 0034 00000000 		.word	.LANCHOR0
 600              		.cfi_endproc
 601              	.LFE9:
 602              		.size	Mux_Unset, .-Mux_Unset
 603              		.section	.text.ADC_POT_AMux_Set,"ax",%progbits
 604              		.align	2
 605              		.global	ADC_POT_AMux_Set
 606              		.thumb
 607              		.thumb_func
 608              		.type	ADC_POT_AMux_Set, %function
 609              	ADC_POT_AMux_Set:
 610              	.LFB10:
 433:Generated_Source\PSoC5/cyfitter_cfg.c **** 
 434:Generated_Source\PSoC5/cyfitter_cfg.c **** /* This is an implementation detail of the AMux. Code that depends on it may be
ARM GAS  C:\Users\Admin\AppData\Local\Temp\cciaXUKk.s 			page 20


 435:Generated_Source\PSoC5/cyfitter_cfg.c ****    incompatible with other versions of PSoC Creator. */
 436:Generated_Source\PSoC5/cyfitter_cfg.c **** uint8 CYXDATA * const CYCODE ADC_POT_AMux__addrTable[2] = {
 437:Generated_Source\PSoC5/cyfitter_cfg.c **** 	(uint8 CYXDATA *)CYREG_DSM0_SW3, 
 438:Generated_Source\PSoC5/cyfitter_cfg.c **** 	(uint8 CYXDATA *)CY_AMUX_UNUSED, 
 439:Generated_Source\PSoC5/cyfitter_cfg.c **** };
 440:Generated_Source\PSoC5/cyfitter_cfg.c **** 
 441:Generated_Source\PSoC5/cyfitter_cfg.c **** /* This is an implementation detail of the AMux. Code that depends on it may be
 442:Generated_Source\PSoC5/cyfitter_cfg.c ****    incompatible with other versions of PSoC Creator. */
 443:Generated_Source\PSoC5/cyfitter_cfg.c **** const uint8 CYCODE ADC_POT_AMux__maskTable[2] = {
 444:Generated_Source\PSoC5/cyfitter_cfg.c **** 	0x40u, 
 445:Generated_Source\PSoC5/cyfitter_cfg.c **** 	0x00u, 
 446:Generated_Source\PSoC5/cyfitter_cfg.c **** };
 447:Generated_Source\PSoC5/cyfitter_cfg.c **** 
 448:Generated_Source\PSoC5/cyfitter_cfg.c **** /*******************************************************************************
 449:Generated_Source\PSoC5/cyfitter_cfg.c **** * Function Name: ADC_POT_AMux_Set
 450:Generated_Source\PSoC5/cyfitter_cfg.c **** ********************************************************************************
 451:Generated_Source\PSoC5/cyfitter_cfg.c **** * Summary:
 452:Generated_Source\PSoC5/cyfitter_cfg.c **** *  This function is used to set a particular channel as active on the AMux.
 453:Generated_Source\PSoC5/cyfitter_cfg.c **** *
 454:Generated_Source\PSoC5/cyfitter_cfg.c **** * Parameters:  
 455:Generated_Source\PSoC5/cyfitter_cfg.c **** *   channel - The mux channel input to set as active
 456:Generated_Source\PSoC5/cyfitter_cfg.c **** *
 457:Generated_Source\PSoC5/cyfitter_cfg.c **** * Return:
 458:Generated_Source\PSoC5/cyfitter_cfg.c **** *   void
 459:Generated_Source\PSoC5/cyfitter_cfg.c **** *
 460:Generated_Source\PSoC5/cyfitter_cfg.c **** *******************************************************************************/
 461:Generated_Source\PSoC5/cyfitter_cfg.c **** void ADC_POT_AMux_Set(uint8 channel)
 462:Generated_Source\PSoC5/cyfitter_cfg.c **** {
 611              		.loc 1 462 0
 612              		.cfi_startproc
 613              		@ args = 0, pretend = 0, frame = 0
 614              		@ frame_needed = 0, uses_anonymous_args = 0
 615              		@ link register save eliminated.
 616              	.LVL50:
 463:Generated_Source\PSoC5/cyfitter_cfg.c **** 	if (channel < 2)
 617              		.loc 1 463 0
 618 0000 0128     		cmp	r0, #1
 619 0002 08D8     		bhi	.L44
 464:Generated_Source\PSoC5/cyfitter_cfg.c **** 	{
 465:Generated_Source\PSoC5/cyfitter_cfg.c **** 		*ADC_POT_AMux__addrTable[channel] |= ADC_POT_AMux__maskTable[channel];
 620              		.loc 1 465 0
 621 0004 044B     		ldr	r3, .L46
 622 0006 03EB8002 		add	r2, r3, r0, lsl #2
 623 000a 5269     		ldr	r2, [r2, #20]
 624 000c 1844     		add	r0, r0, r3
 625              	.LVL51:
 626 000e 017F     		ldrb	r1, [r0, #28]	@ zero_extendqisi2
 627 0010 1378     		ldrb	r3, [r2]	@ zero_extendqisi2
 628 0012 0B43     		orrs	r3, r3, r1
 629 0014 1370     		strb	r3, [r2]
 630              	.L44:
 631 0016 7047     		bx	lr
 632              	.L47:
 633              		.align	2
 634              	.L46:
 635 0018 00000000 		.word	.LANCHOR0
 636              		.cfi_endproc
ARM GAS  C:\Users\Admin\AppData\Local\Temp\cciaXUKk.s 			page 21


 637              	.LFE10:
 638              		.size	ADC_POT_AMux_Set, .-ADC_POT_AMux_Set
 639              		.section	.text.ADC_POT_AMux_Unset,"ax",%progbits
 640              		.align	2
 641              		.global	ADC_POT_AMux_Unset
 642              		.thumb
 643              		.thumb_func
 644              		.type	ADC_POT_AMux_Unset, %function
 645              	ADC_POT_AMux_Unset:
 646              	.LFB11:
 466:Generated_Source\PSoC5/cyfitter_cfg.c **** 	}
 467:Generated_Source\PSoC5/cyfitter_cfg.c **** }
 468:Generated_Source\PSoC5/cyfitter_cfg.c **** 
 469:Generated_Source\PSoC5/cyfitter_cfg.c **** /*******************************************************************************
 470:Generated_Source\PSoC5/cyfitter_cfg.c **** * Function Name: ADC_POT_AMux_Unset
 471:Generated_Source\PSoC5/cyfitter_cfg.c **** ********************************************************************************
 472:Generated_Source\PSoC5/cyfitter_cfg.c **** * Summary:
 473:Generated_Source\PSoC5/cyfitter_cfg.c **** *  This function is used to clear a particular channel from being active on the
 474:Generated_Source\PSoC5/cyfitter_cfg.c **** *  AMux.
 475:Generated_Source\PSoC5/cyfitter_cfg.c **** *
 476:Generated_Source\PSoC5/cyfitter_cfg.c **** * Parameters:  
 477:Generated_Source\PSoC5/cyfitter_cfg.c **** *   channel - The mux channel input to mark inactive
 478:Generated_Source\PSoC5/cyfitter_cfg.c **** *
 479:Generated_Source\PSoC5/cyfitter_cfg.c **** * Return:
 480:Generated_Source\PSoC5/cyfitter_cfg.c **** *   void
 481:Generated_Source\PSoC5/cyfitter_cfg.c **** *
 482:Generated_Source\PSoC5/cyfitter_cfg.c **** *******************************************************************************/
 483:Generated_Source\PSoC5/cyfitter_cfg.c **** void ADC_POT_AMux_Unset(uint8 channel)
 484:Generated_Source\PSoC5/cyfitter_cfg.c **** {
 647              		.loc 1 484 0
 648              		.cfi_startproc
 649              		@ args = 0, pretend = 0, frame = 0
 650              		@ frame_needed = 0, uses_anonymous_args = 0
 651              		@ link register save eliminated.
 652              	.LVL52:
 485:Generated_Source\PSoC5/cyfitter_cfg.c **** 	if (channel < 2)
 653              		.loc 1 485 0
 654 0000 0128     		cmp	r0, #1
 655 0002 09D8     		bhi	.L48
 486:Generated_Source\PSoC5/cyfitter_cfg.c **** 	{
 487:Generated_Source\PSoC5/cyfitter_cfg.c **** 		*ADC_POT_AMux__addrTable[channel] &= (uint8)~ADC_POT_AMux__maskTable[channel];
 656              		.loc 1 487 0
 657 0004 054B     		ldr	r3, .L50
 658 0006 03EB8002 		add	r2, r3, r0, lsl #2
 659 000a 5269     		ldr	r2, [r2, #20]
 660 000c 1844     		add	r0, r0, r3
 661              	.LVL53:
 662 000e 017F     		ldrb	r1, [r0, #28]	@ zero_extendqisi2
 663 0010 1378     		ldrb	r3, [r2]	@ zero_extendqisi2
 664 0012 23EA0103 		bic	r3, r3, r1
 665 0016 1370     		strb	r3, [r2]
 666              	.L48:
 667 0018 7047     		bx	lr
 668              	.L51:
 669 001a 00BF     		.align	2
 670              	.L50:
 671 001c 00000000 		.word	.LANCHOR0
ARM GAS  C:\Users\Admin\AppData\Local\Temp\cciaXUKk.s 			page 22


 672              		.cfi_endproc
 673              	.LFE11:
 674              		.size	ADC_POT_AMux_Unset, .-ADC_POT_AMux_Unset
 675              		.section	.text.cyfitter_cfg,"ax",%progbits
 676              		.align	2
 677              		.global	cyfitter_cfg
 678              		.thumb
 679              		.thumb_func
 680              		.type	cyfitter_cfg, %function
 681              	cyfitter_cfg:
 682              	.LFB12:
 488:Generated_Source\PSoC5/cyfitter_cfg.c **** 	}
 489:Generated_Source\PSoC5/cyfitter_cfg.c **** }
 490:Generated_Source\PSoC5/cyfitter_cfg.c **** 
 491:Generated_Source\PSoC5/cyfitter_cfg.c **** 
 492:Generated_Source\PSoC5/cyfitter_cfg.c **** 
 493:Generated_Source\PSoC5/cyfitter_cfg.c **** /*******************************************************************************
 494:Generated_Source\PSoC5/cyfitter_cfg.c **** * Function Name: cyfitter_cfg
 495:Generated_Source\PSoC5/cyfitter_cfg.c **** ********************************************************************************
 496:Generated_Source\PSoC5/cyfitter_cfg.c **** * Summary:
 497:Generated_Source\PSoC5/cyfitter_cfg.c **** *  This function is called by the start-up code for the selected device. It
 498:Generated_Source\PSoC5/cyfitter_cfg.c **** *  performs all of the necessary device configuration based on the design
 499:Generated_Source\PSoC5/cyfitter_cfg.c **** *  settings.  This includes settings from the Design Wide Resources (DWR) such
 500:Generated_Source\PSoC5/cyfitter_cfg.c **** *  as Clocks and Pins as well as any component configuration that is necessary.
 501:Generated_Source\PSoC5/cyfitter_cfg.c **** *
 502:Generated_Source\PSoC5/cyfitter_cfg.c **** * Parameters:
 503:Generated_Source\PSoC5/cyfitter_cfg.c **** *   void
 504:Generated_Source\PSoC5/cyfitter_cfg.c **** *
 505:Generated_Source\PSoC5/cyfitter_cfg.c **** * Return:
 506:Generated_Source\PSoC5/cyfitter_cfg.c **** *   void
 507:Generated_Source\PSoC5/cyfitter_cfg.c **** *
 508:Generated_Source\PSoC5/cyfitter_cfg.c **** *******************************************************************************/
 509:Generated_Source\PSoC5/cyfitter_cfg.c **** 
 510:Generated_Source\PSoC5/cyfitter_cfg.c **** void cyfitter_cfg(void)
 511:Generated_Source\PSoC5/cyfitter_cfg.c **** {
 683              		.loc 1 511 0
 684              		.cfi_startproc
 685              		@ args = 0, pretend = 0, frame = 0
 686              		@ frame_needed = 0, uses_anonymous_args = 0
 687 0000 38B5     		push	{r3, r4, r5, lr}
 688              		.cfi_def_cfa_offset 16
 689              		.cfi_offset 3, -16
 690              		.cfi_offset 4, -12
 691              		.cfi_offset 5, -8
 692              		.cfi_offset 14, -4
 512:Generated_Source\PSoC5/cyfitter_cfg.c **** #ifdef CYGlobalIntDisable
 513:Generated_Source\PSoC5/cyfitter_cfg.c **** 	/* Disable interrupts by default. Let user enable if/when they want. */
 514:Generated_Source\PSoC5/cyfitter_cfg.c **** 	CYGlobalIntDisable
 693              		.loc 1 514 0
 694              		.syntax unified
 695              	@ 514 "Generated_Source\PSoC5\cyfitter_cfg.c" 1
 696 0002 72B6     		CPSID   i
 697              	@ 0 "" 2
 515:Generated_Source\PSoC5/cyfitter_cfg.c **** #endif
 516:Generated_Source\PSoC5/cyfitter_cfg.c **** 
 517:Generated_Source\PSoC5/cyfitter_cfg.c **** 	/* Enable/Disable Debug functionality based on settings from System DWR */
 518:Generated_Source\PSoC5/cyfitter_cfg.c **** 	CY_SET_XTND_REG8((void CYFAR *)CYREG_MLOGIC_DEBUG, (CY_GET_XTND_REG8((void CYFAR *)CYREG_MLOGIC_DE
ARM GAS  C:\Users\Admin\AppData\Local\Temp\cciaXUKk.s 			page 23


 698              		.loc 1 518 0
 699              		.thumb
 700              		.syntax unified
 701 0004 3E4A     		ldr	r2, .L56
 702 0006 1378     		ldrb	r3, [r2]	@ zero_extendqisi2
 703 0008 43F00403 		orr	r3, r3, #4
 704 000c 1370     		strb	r3, [r2]
 705              	.LVL54:
 706              	.LBB3:
 519:Generated_Source\PSoC5/cyfitter_cfg.c **** 
 520:Generated_Source\PSoC5/cyfitter_cfg.c **** 	{
 521:Generated_Source\PSoC5/cyfitter_cfg.c **** 
 522:Generated_Source\PSoC5/cyfitter_cfg.c **** 		CYPACKED typedef struct {
 523:Generated_Source\PSoC5/cyfitter_cfg.c **** 			void CYFAR *address;
 524:Generated_Source\PSoC5/cyfitter_cfg.c **** 			uint16 size;
 525:Generated_Source\PSoC5/cyfitter_cfg.c **** 		} CYPACKED_ATTR cfg_memset_t;
 526:Generated_Source\PSoC5/cyfitter_cfg.c **** 
 527:Generated_Source\PSoC5/cyfitter_cfg.c **** 		static const cfg_memset_t CYCODE cfg_memset_list[] = {
 528:Generated_Source\PSoC5/cyfitter_cfg.c **** 			/* address, size */
 529:Generated_Source\PSoC5/cyfitter_cfg.c **** 			{(void CYFAR *)(CYREG_PRT4_DR), 48u},
 530:Generated_Source\PSoC5/cyfitter_cfg.c **** 			{(void CYFAR *)(CYREG_PRT12_DR), 16u},
 531:Generated_Source\PSoC5/cyfitter_cfg.c **** 			{(void CYFAR *)(CYDEV_UCFG_B0_P0_U0_BASE), 4096u},
 532:Generated_Source\PSoC5/cyfitter_cfg.c **** 			{(void CYFAR *)(CYDEV_UCFG_B1_P2_U0_BASE), 2048u},
 533:Generated_Source\PSoC5/cyfitter_cfg.c **** 			{(void CYFAR *)(CYDEV_UCFG_DSI0_BASE), 2560u},
 534:Generated_Source\PSoC5/cyfitter_cfg.c **** 			{(void CYFAR *)(CYDEV_UCFG_DSI12_BASE), 512u},
 535:Generated_Source\PSoC5/cyfitter_cfg.c **** 			{(void CYFAR *)(CYREG_BCTL0_MDCLK_EN), 32u},
 536:Generated_Source\PSoC5/cyfitter_cfg.c **** 		};
 537:Generated_Source\PSoC5/cyfitter_cfg.c **** 
 538:Generated_Source\PSoC5/cyfitter_cfg.c **** 		uint8 CYDATA i;
 539:Generated_Source\PSoC5/cyfitter_cfg.c **** 
 540:Generated_Source\PSoC5/cyfitter_cfg.c **** 		/* Zero out critical memory blocks before beginning configuration */
 541:Generated_Source\PSoC5/cyfitter_cfg.c **** 		for (i = 0u; i < (sizeof(cfg_memset_list)/sizeof(cfg_memset_list[0])); i++)
 707              		.loc 1 541 0
 708 000e 0024     		movs	r4, #0
 709 0010 0BE0     		b	.L53
 710              	.LVL55:
 711              	.L54:
 712              	.LBB4:
 542:Generated_Source\PSoC5/cyfitter_cfg.c **** 		{
 543:Generated_Source\PSoC5/cyfitter_cfg.c **** 			const cfg_memset_t CYCODE * CYDATA ms = &cfg_memset_list[i];
 544:Generated_Source\PSoC5/cyfitter_cfg.c **** 			CYMEMZERO(ms->address, (size_t)(uint32)(ms->size));
 713              		.loc 1 544 0 discriminator 3
 714 0012 3C48     		ldr	r0, .L56+4
 715 0014 6300     		lsls	r3, r4, #1
 716 0016 1A19     		adds	r2, r3, r4
 717 0018 5100     		lsls	r1, r2, #1
 718 001a 0144     		add	r1, r1, r0
 719 001c 0A46     		mov	r2, r1
 720 001e 898C     		ldrh	r1, [r1, #36]
 721 0020 106A     		ldr	r0, [r2, #32]	@ unaligned
 722 0022 FFF7FEFF 		bl	CYMEMZERO
 723              	.LVL56:
 724              	.LBE4:
 541:Generated_Source\PSoC5/cyfitter_cfg.c **** 		{
 725              		.loc 1 541 0 discriminator 3
 726 0026 0134     		adds	r4, r4, #1
 727              	.LVL57:
ARM GAS  C:\Users\Admin\AppData\Local\Temp\cciaXUKk.s 			page 24


 728 0028 E4B2     		uxtb	r4, r4
 729              	.LVL58:
 730              	.L53:
 541:Generated_Source\PSoC5/cyfitter_cfg.c **** 		{
 731              		.loc 1 541 0 is_stmt 0 discriminator 1
 732 002a 062C     		cmp	r4, #6
 733 002c F1D9     		bls	.L54
 545:Generated_Source\PSoC5/cyfitter_cfg.c **** 		}
 546:Generated_Source\PSoC5/cyfitter_cfg.c **** 
 547:Generated_Source\PSoC5/cyfitter_cfg.c **** 		cfg_write_bytes32(cy_cfg_addr_table, cy_cfg_data_table);
 734              		.loc 1 547 0 is_stmt 1
 735 002e 3649     		ldr	r1, .L56+8
 736 0030 4FF09040 		mov	r0, #1207959552
 737 0034 FFF7FEFF 		bl	cfg_write_bytes32
 738              	.LVL59:
 548:Generated_Source\PSoC5/cyfitter_cfg.c **** 
 549:Generated_Source\PSoC5/cyfitter_cfg.c **** 		/* Perform normal device configuration. Order is not critical for these items. */
 550:Generated_Source\PSoC5/cyfitter_cfg.c **** 		CY_SET_XTND_REG8((void CYFAR *)(CYREG_DSM0_CR3), 0x0Au);
 739              		.loc 1 550 0
 740 0038 0A25     		movs	r5, #10
 741 003a 344B     		ldr	r3, .L56+12
 742 003c 1D70     		strb	r5, [r3]
 551:Generated_Source\PSoC5/cyfitter_cfg.c **** 		CY_SET_XTND_REG8((void CYFAR *)(CYREG_DSM0_CLK), 0x02u);
 743              		.loc 1 551 0
 744 003e 0222     		movs	r2, #2
 745 0040 03F52173 		add	r3, r3, #644
 746 0044 1A70     		strb	r2, [r3]
 552:Generated_Source\PSoC5/cyfitter_cfg.c **** 		CYMEMZERO((void CYFAR *)(CYREG_PHUB_CFGMEM0_CFG0), 4u);
 747              		.loc 1 552 0
 748 0046 0421     		movs	r1, #4
 749 0048 3148     		ldr	r0, .L56+16
 750 004a FFF7FEFF 		bl	CYMEMZERO
 751              	.LVL60:
 553:Generated_Source\PSoC5/cyfitter_cfg.c **** 		CYMEMZERO((void CYFAR *)(CYREG_PHUB_CFGMEM1_CFG0), 4u);
 752              		.loc 1 553 0
 753 004e 0421     		movs	r1, #4
 754 0050 3048     		ldr	r0, .L56+20
 755 0052 FFF7FEFF 		bl	CYMEMZERO
 756              	.LVL61:
 554:Generated_Source\PSoC5/cyfitter_cfg.c **** 		CYMEMZERO((void CYFAR *)(CYREG_PHUB_CFGMEM2_CFG0), 4u);
 757              		.loc 1 554 0
 758 0056 0421     		movs	r1, #4
 759 0058 2F48     		ldr	r0, .L56+24
 760 005a FFF7FEFF 		bl	CYMEMZERO
 761              	.LVL62:
 555:Generated_Source\PSoC5/cyfitter_cfg.c **** 		CYMEMZERO((void CYFAR *)(CYREG_PHUB_CFGMEM3_CFG0), 4u);
 762              		.loc 1 555 0
 763 005e 0421     		movs	r1, #4
 764 0060 2E48     		ldr	r0, .L56+28
 765 0062 FFF7FEFF 		bl	CYMEMZERO
 766              	.LVL63:
 556:Generated_Source\PSoC5/cyfitter_cfg.c **** 		CYCONFIGCPY((void CYFAR *)(CYREG_PHUB_CFGMEM4_CFG0), (const void CYFAR *)(BS_PHUB_CFGMEM4_VAL), 4
 767              		.loc 1 556 0
 768 0066 0422     		movs	r2, #4
 769 0068 2D49     		ldr	r1, .L56+32
 770 006a 2E48     		ldr	r0, .L56+36
 771 006c FFF7FEFF 		bl	CYCONFIGCPY
ARM GAS  C:\Users\Admin\AppData\Local\Temp\cciaXUKk.s 			page 25


 772              	.LVL64:
 557:Generated_Source\PSoC5/cyfitter_cfg.c **** 		CYCONFIGCPY((void CYFAR *)(CYREG_PHUB_CFGMEM5_CFG0), (const void CYFAR *)(BS_PHUB_CFGMEM5_VAL), 4
 773              		.loc 1 557 0
 774 0070 0422     		movs	r2, #4
 775 0072 2D49     		ldr	r1, .L56+40
 776 0074 2D48     		ldr	r0, .L56+44
 777 0076 FFF7FEFF 		bl	CYCONFIGCPY
 778              	.LVL65:
 558:Generated_Source\PSoC5/cyfitter_cfg.c **** 
 559:Generated_Source\PSoC5/cyfitter_cfg.c **** 		/* Enable digital routing */
 560:Generated_Source\PSoC5/cyfitter_cfg.c **** 		CY_SET_XTND_REG8((void CYFAR *)CYREG_BCTL0_BANK_CTL, CY_GET_XTND_REG8((void CYFAR *)CYREG_BCTL0_B
 779              		.loc 1 560 0
 780 007a 2D4A     		ldr	r2, .L56+48
 781 007c 1378     		ldrb	r3, [r2]	@ zero_extendqisi2
 782 007e 43F00203 		orr	r3, r3, #2
 783 0082 1370     		strb	r3, [r2]
 561:Generated_Source\PSoC5/cyfitter_cfg.c **** 		CY_SET_XTND_REG8((void CYFAR *)CYREG_BCTL1_BANK_CTL, CY_GET_XTND_REG8((void CYFAR *)CYREG_BCTL1_B
 784              		.loc 1 561 0
 785 0084 1032     		adds	r2, r2, #16
 786 0086 1378     		ldrb	r3, [r2]	@ zero_extendqisi2
 787 0088 43F00203 		orr	r3, r3, #2
 788 008c 1370     		strb	r3, [r2]
 562:Generated_Source\PSoC5/cyfitter_cfg.c **** 
 563:Generated_Source\PSoC5/cyfitter_cfg.c **** 		/* Enable UDB array */
 564:Generated_Source\PSoC5/cyfitter_cfg.c **** 		CY_SET_XTND_REG8((void CYFAR *)CYREG_PM_ACT_CFG0, CY_GET_XTND_REG8((void CYFAR *)CYREG_PM_ACT_CFG
 789              		.loc 1 564 0
 790 008e 294C     		ldr	r4, .L56+52
 791              	.LVL66:
 792 0090 2378     		ldrb	r3, [r4]	@ zero_extendqisi2
 793 0092 43F04003 		orr	r3, r3, #64
 794 0096 2370     		strb	r3, [r4]
 565:Generated_Source\PSoC5/cyfitter_cfg.c **** 		CY_SET_XTND_REG8((void CYFAR *)CYREG_PM_AVAIL_CR2, CY_GET_XTND_REG8((void CYFAR *)CYREG_PM_AVAIL_
 795              		.loc 1 565 0
 796 0098 A2F58632 		sub	r2, r2, #68608
 797 009c 513A     		subs	r2, r2, #81
 798 009e 1378     		ldrb	r3, [r2]	@ zero_extendqisi2
 799 00a0 43F01003 		orr	r3, r3, #16
 800 00a4 1370     		strb	r3, [r2]
 801              	.LBE3:
 566:Generated_Source\PSoC5/cyfitter_cfg.c **** 	}
 567:Generated_Source\PSoC5/cyfitter_cfg.c **** 
 568:Generated_Source\PSoC5/cyfitter_cfg.c **** 
 569:Generated_Source\PSoC5/cyfitter_cfg.c **** 	/* Perform second pass device configuration. These items must be configured in specific order afte
 570:Generated_Source\PSoC5/cyfitter_cfg.c **** 	CYCONFIGCPY((void CYFAR *)(CYREG_PRT0_DM0), (const void CYFAR *)(BS_IOPINS0_0_VAL), 8u);
 802              		.loc 1 570 0
 803 00a6 0822     		movs	r2, #8
 804 00a8 2349     		ldr	r1, .L56+56
 805 00aa 2448     		ldr	r0, .L56+60
 806 00ac FFF7FEFF 		bl	CYCONFIGCPY
 807              	.LVL67:
 571:Generated_Source\PSoC5/cyfitter_cfg.c **** 	CYCONFIGCPY((void CYFAR *)(CYREG_PRT15_DR), (const void CYFAR *)(BS_IOPINS0_8_VAL), 10u);
 808              		.loc 1 571 0
 809 00b0 2A46     		mov	r2, r5
 810 00b2 2349     		ldr	r1, .L56+64
 811 00b4 2348     		ldr	r0, .L56+68
 812 00b6 FFF7FEFF 		bl	CYCONFIGCPY
 813              	.LVL68:
ARM GAS  C:\Users\Admin\AppData\Local\Temp\cciaXUKk.s 			page 26


 572:Generated_Source\PSoC5/cyfitter_cfg.c **** 	CYCONFIGCPY((void CYFAR *)(CYREG_PRT1_DM0), (const void CYFAR *)(BS_IOPINS0_1_VAL), 8u);
 814              		.loc 1 572 0
 815 00ba 0822     		movs	r2, #8
 816 00bc 2249     		ldr	r1, .L56+72
 817 00be 2348     		ldr	r0, .L56+76
 818 00c0 FFF7FEFF 		bl	CYCONFIGCPY
 819              	.LVL69:
 573:Generated_Source\PSoC5/cyfitter_cfg.c **** 	CYCONFIGCPY((void CYFAR *)(CYREG_PRT2_DM0), (const void CYFAR *)(BS_IOPINS0_2_VAL), 8u);
 820              		.loc 1 573 0
 821 00c4 0822     		movs	r2, #8
 822 00c6 2249     		ldr	r1, .L56+80
 823 00c8 2248     		ldr	r0, .L56+84
 824 00ca FFF7FEFF 		bl	CYCONFIGCPY
 825              	.LVL70:
 574:Generated_Source\PSoC5/cyfitter_cfg.c **** 	CYCONFIGCPY((void CYFAR *)(CYREG_PRT3_DM0), (const void CYFAR *)(BS_IOPINS0_3_VAL), 8u);
 826              		.loc 1 574 0
 827 00ce 0822     		movs	r2, #8
 828 00d0 2149     		ldr	r1, .L56+88
 829 00d2 2248     		ldr	r0, .L56+92
 830 00d4 FFF7FEFF 		bl	CYCONFIGCPY
 831              	.LVL71:
 575:Generated_Source\PSoC5/cyfitter_cfg.c **** 	/* Switch Boost to the precision bandgap reference from its internal reference */
 576:Generated_Source\PSoC5/cyfitter_cfg.c **** 	CY_SET_REG8((void CYXDATA *)CYREG_BOOST_CR2, (CY_GET_REG8((void CYXDATA *)CYREG_BOOST_CR2) | 0x08u
 832              		.loc 1 576 0
 833 00d8 214A     		ldr	r2, .L56+96
 834 00da 1378     		ldrb	r3, [r2]	@ zero_extendqisi2
 835 00dc 43F00803 		orr	r3, r3, #8
 836 00e0 1370     		strb	r3, [r2]
 577:Generated_Source\PSoC5/cyfitter_cfg.c **** 
 578:Generated_Source\PSoC5/cyfitter_cfg.c **** 	/* Set Flash Cycles based on max possible frequency in case a glitch occurs during ClockSetup(). *
 579:Generated_Source\PSoC5/cyfitter_cfg.c **** 	CY_SET_XTND_REG8((void CYFAR *)(CYREG_CACHE_CC_CTL), (((CYDEV_INSTRUCT_CACHE_ENABLED) != 0) ? 0x61
 837              		.loc 1 579 0
 838 00e2 204D     		ldr	r5, .L56+100
 839 00e4 6123     		movs	r3, #97
 840 00e6 2B70     		strb	r3, [r5]
 580:Generated_Source\PSoC5/cyfitter_cfg.c **** 	/* Setup clocks based on selections from Clock DWR */
 581:Generated_Source\PSoC5/cyfitter_cfg.c **** 	ClockSetup();
 841              		.loc 1 581 0
 842 00e8 FFF7FEFF 		bl	ClockSetup
 843              	.LVL72:
 582:Generated_Source\PSoC5/cyfitter_cfg.c **** 	/* Set Flash Cycles based on newly configured 24.00MHz Bus Clock. */
 583:Generated_Source\PSoC5/cyfitter_cfg.c **** 	CY_SET_XTND_REG8((void CYFAR *)(CYREG_CACHE_CC_CTL), (((CYDEV_INSTRUCT_CACHE_ENABLED) != 0) ? 0x81
 844              		.loc 1 583 0
 845 00ec 8123     		movs	r3, #129
 846 00ee 2B70     		strb	r3, [r5]
 584:Generated_Source\PSoC5/cyfitter_cfg.c **** 
 585:Generated_Source\PSoC5/cyfitter_cfg.c **** 	/* Perform basic analog initialization to defaults */
 586:Generated_Source\PSoC5/cyfitter_cfg.c **** 	AnalogSetDefault();
 847              		.loc 1 586 0
 848 00f0 FFF7FEFF 		bl	AnalogSetDefault
 849              	.LVL73:
 587:Generated_Source\PSoC5/cyfitter_cfg.c **** 
 588:Generated_Source\PSoC5/cyfitter_cfg.c **** 	/* Configure alternate active mode */
 589:Generated_Source\PSoC5/cyfitter_cfg.c **** 	CYCONFIGCPY((void CYFAR *)CYDEV_PM_STBY_BASE, (const void CYFAR *)CYDEV_PM_ACT_BASE, 14u);
 850              		.loc 1 589 0
 851 00f4 0E22     		movs	r2, #14
 852 00f6 2146     		mov	r1, r4
ARM GAS  C:\Users\Admin\AppData\Local\Temp\cciaXUKk.s 			page 27


 853 00f8 1B48     		ldr	r0, .L56+104
 854 00fa FFF7FEFF 		bl	CYCONFIGCPY
 855              	.LVL74:
 856 00fe 38BD     		pop	{r3, r4, r5, pc}
 857              	.L57:
 858              		.align	2
 859              	.L56:
 860 0100 E8460040 		.word	1073759976
 861 0104 00000000 		.word	.LANCHOR0
 862 0108 84000048 		.word	1207959684
 863 010c 83580040 		.word	1073764483
 864 0110 00760040 		.word	1073772032
 865 0114 08760040 		.word	1073772040
 866 0118 10760040 		.word	1073772048
 867 011c 18760040 		.word	1073772056
 868 0120 68020048 		.word	1207960168
 869 0124 20760040 		.word	1073772064
 870 0128 6C020048 		.word	1207960172
 871 012c 28760040 		.word	1073772072
 872 0130 03500140 		.word	1073827843
 873 0134 A0430040 		.word	1073759136
 874 0138 30020048 		.word	1207960112
 875 013c 02510040 		.word	1073762562
 876 0140 38020048 		.word	1207960120
 877 0144 F0510040 		.word	1073762800
 878 0148 44020048 		.word	1207960132
 879 014c 12510040 		.word	1073762578
 880 0150 4C020048 		.word	1207960140
 881 0154 22510040 		.word	1073762594
 882 0158 54020048 		.word	1207960148
 883 015c 32510040 		.word	1073762610
 884 0160 22430040 		.word	1073759010
 885 0164 00480040 		.word	1073760256
 886 0168 B0430040 		.word	1073759152
 887              		.cfi_endproc
 888              	.LFE12:
 889              		.size	cyfitter_cfg, .-cyfitter_cfg
 890              		.global	ADC_POT_AMux__maskTable
 891              		.global	ADC_POT_AMux__addrTable
 892              		.global	Mux__maskTable
 893              		.global	Mux__addrTable
 894              		.section	.rodata
 895              		.align	2
 896              		.set	.LANCHOR0,. + 0
 897              		.type	Mux__addrTable, %object
 898              		.size	Mux__addrTable, 16
 899              	Mux__addrTable:
 900 0000 3D510040 		.word	1073762621
 901 0004 005B0040 		.word	1073765120
 902 0008 0D510040 		.word	1073762573
 903 000c 005B0040 		.word	1073765120
 904              		.type	Mux__maskTable, %object
 905              		.size	Mux__maskTable, 4
 906              	Mux__maskTable:
 907 0010 01       		.byte	1
 908 0011 10       		.byte	16
 909 0012 40       		.byte	64
ARM GAS  C:\Users\Admin\AppData\Local\Temp\cciaXUKk.s 			page 28


 910 0013 40       		.byte	64
 911              		.type	ADC_POT_AMux__addrTable, %object
 912              		.size	ADC_POT_AMux__addrTable, 8
 913              	ADC_POT_AMux__addrTable:
 914 0014 035B0040 		.word	1073765123
 915 0018 24430040 		.word	1073759012
 916              		.type	ADC_POT_AMux__maskTable, %object
 917              		.size	ADC_POT_AMux__maskTable, 2
 918              	ADC_POT_AMux__maskTable:
 919 001c 40       		.byte	64
 920 001d 00       		.byte	0
 921 001e 0000     		.space	2
 922              		.type	cfg_memset_list.5043, %object
 923              		.size	cfg_memset_list.5043, 42
 924              	cfg_memset_list.5043:
 925 0020 40510040 		.word	1073762624
 926 0024 3000     		.short	48
 927 0026 C0510040 		.4byte	1073762752
 928 002a 1000     		.short	16
 929 002c 00000140 		.word	1073807360
 930 0030 0010     		.short	4096
 931 0032 00140140 		.4byte	1073812480
 932 0036 0008     		.short	2048
 933 0038 00400140 		.word	1073823744
 934 003c 000A     		.short	2560
 935 003e 004C0140 		.4byte	1073826816
 936 0042 0002     		.short	512
 937 0044 00500140 		.word	1073827840
 938 0048 2000     		.short	32
 939              		.text
 940              	.Letext0:
 941              		.file 2 "c:\\program files (x86)\\cypress\\psoc creator\\4.2\\psoc creator\\import\\gnu\\arm\\5.4.
 942              		.file 3 "Generated_Source\\PSoC5\\cytypes.h"
 943              		.file 4 "Generated_Source\\PSoC5\\CyLib.h"