ARM GAS  C:\Users\Admin\AppData\Local\Temp\ccfJydJe.s 			page 1


   1              		.syntax unified
   2              		.cpu cortex-m3
   3              		.fpu softvfp
   4              		.eabi_attribute 20, 1
   5              		.eabi_attribute 21, 1
   6              		.eabi_attribute 23, 3
   7              		.eabi_attribute 24, 1
   8              		.eabi_attribute 25, 1
   9              		.eabi_attribute 26, 1
  10              		.eabi_attribute 30, 1
  11              		.eabi_attribute 34, 1
  12              		.eabi_attribute 18, 4
  13              		.thumb
  14              		.syntax unified
  15              		.file	"main.c"
  16              		.text
  17              	.Ltext0:
  18              		.cfi_sections	.debug_frame
  19              		.section	.text.ch1Transmit,"ax",%progbits
  20              		.align	2
  21              		.global	ch1Transmit
  22              		.thumb
  23              		.thumb_func
  24              		.type	ch1Transmit, %function
  25              	ch1Transmit:
  26              	.LFB66:
  27              		.file 1 "main.c"
   1:main.c        **** /* ========================================
   2:main.c        ****  *
   3:main.c        ****  * Copyright YOUR COMPANY, THE YEAR
   4:main.c        ****  * All Rights Reserved
   5:main.c        ****  * UNPUBLISHED, LICENSED SOFTWARE.
   6:main.c        ****  *
   7:main.c        ****  * CONFIDENTIAL AND PROPRIETARY INFORMATION
   8:main.c        ****  * WHICH IS THE PROPERTY OF your company.
   9:main.c        ****  *
  10:main.c        ****  * ========================================
  11:main.c        **** */
  12:main.c        **** #include "project.h"
  13:main.c        **** 
  14:main.c        **** /* Defines for DMA_1 */
  15:main.c        **** #define DMA_1_BYTES_PER_BURST 1
  16:main.c        **** #define DMA_1_REQUEST_PER_BURST 1
  17:main.c        **** #define DMA_1_SRC_BASE (CYDEV_PERIPH_BASE)
  18:main.c        **** #define DMA_1_DST_BASE (CYDEV_SRAM_BASE)
  19:main.c        **** 
  20:main.c        **** /* Defines for DMA_2 */
  21:main.c        **** #define DMA_2_BYTES_PER_BURST 1
  22:main.c        **** #define DMA_2_REQUEST_PER_BURST 1
  23:main.c        **** #define DMA_2_SRC_BASE (CYDEV_PERIPH_BASE)
  24:main.c        **** #define DMA_2_DST_BASE (CYDEV_SRAM_BASE)
  25:main.c        **** 
  26:main.c        **** /* USB device number. */
  27:main.c        **** #define USBFS_DEVICE  (0u)
  28:main.c        **** 
  29:main.c        **** /* Active endpoints of USB device. */
  30:main.c        **** #define IN_EP_CH1    (1u)
ARM GAS  C:\Users\Admin\AppData\Local\Temp\ccfJydJe.s 			page 2


  31:main.c        **** #define IN_EP_CH2    (2u)
  32:main.c        **** #define IN_EP_POT    (3u)
  33:main.c        **** #define OUT_EP_ENABLE (4u)
  34:main.c        **** 
  35:main.c        **** /* Size of SRAM buffer to store endpoint data. */
  36:main.c        **** #define BUFFER_SIZE   (64u)
  37:main.c        **** 
  38:main.c        **** /* Pot threshold*/
  39:main.c        **** #define DEBOUNCE_VALUE 5
  40:main.c        **** 
  41:main.c        **** /* Global Variables */
  42:main.c        **** uint8_t piEnable[1]; //To toggle ADC conversion
  43:main.c        **** 
  44:main.c        **** uint8_t buffer[BUFFER_SIZE]; //USB buffer
  45:main.c        **** 
  46:main.c        **** uint8_t ch1Ping[BUFFER_SIZE]; //Ping pong buffers for data transfer
  47:main.c        **** uint8_t ch1Pong[BUFFER_SIZE];
  48:main.c        **** uint8_t ch2Ping[BUFFER_SIZE];
  49:main.c        **** uint8_t ch2Pong[BUFFER_SIZE];    
  50:main.c        **** 
  51:main.c        **** uint8_t potVals[2]; //Array to send pot values to Pi
  52:main.c        **** uint8_t val1 = 0;
  53:main.c        **** uint8_t val2 = 0;
  54:main.c        **** uint8_t val1Old = 0; //For debouncing
  55:main.c        **** uint8_t val2Old = 0;
  56:main.c        **** 
  57:main.c        **** uint8_t ch1Flag = 1; //Flags to toggle buffers
  58:main.c        **** uint8_t ch2Flag = 1;
  59:main.c        **** 
  60:main.c        **** /* Function Declarations */   
  61:main.c        **** CY_ISR_PROTO(ch1Transmit);
  62:main.c        **** CY_ISR_PROTO(ch2Transmit);
  63:main.c        **** CY_ISR_PROTO(potSample);
  64:main.c        **** void DMA_setup();
  65:main.c        **** void USB_setup();
  66:main.c        **** 
  67:main.c        **** int main(void)
  68:main.c        **** {
  69:main.c        ****     CyGlobalIntEnable; /* Enable global interrupts. */
  70:main.c        ****     
  71:main.c        ****     DMA_setup();
  72:main.c        ****     USB_setup();
  73:main.c        ****     Mux_Start();
  74:main.c        ****     Timer_1_Start();
  75:main.c        ****     isr_1_StartEx(ch1Transmit);
  76:main.c        ****     isr_2_StartEx(ch2Transmit);
  77:main.c        ****     isr_pot_StartEx(potSample);
  78:main.c        ****     ADC_CH1_Start();
  79:main.c        ****     ADC_CH2_Start();
  80:main.c        ****     ADC_CH1_StartConvert();
  81:main.c        ****     ADC_CH2_StartConvert();
  82:main.c        ****     ADC_POT_Start();
  83:main.c        ****     ADC_POT_StartConvert();
  84:main.c        ****     
  85:main.c        ****     
  86:main.c        ****     for(uint8_t i = 0; i < BUFFER_SIZE; i++){ //Initialize buffers
  87:main.c        ****         ch1Ping[i] = 0;
ARM GAS  C:\Users\Admin\AppData\Local\Temp\ccfJydJe.s 			page 3


  88:main.c        ****         ch1Pong[i] = 0;
  89:main.c        ****         ch2Ping[i] = 0;
  90:main.c        ****         ch2Pong[i] = 0;
  91:main.c        ****     }
  92:main.c        ****     
  93:main.c        ****     
  94:main.c        ****     for(;;)
  95:main.c        ****     {
  96:main.c        ****         /* Check if configuration is changed. */
  97:main.c        ****         if(0u != USBFS_IsConfigurationChanged()){
  98:main.c        ****             /* Re-enable endpoint when device is configured. */
  99:main.c        ****             if(0u != USBFS_GetConfiguration()){
 100:main.c        ****                 /* Enable OUT endpoint to receive data from host. */
 101:main.c        ****                 USBFS_EnableOutEP(OUT_EP_ENABLE);
 102:main.c        ****             }
 103:main.c        ****         }
 104:main.c        ****         /* Check if data was received. */
 105:main.c        ****         if(USBFS_GetEPState(OUT_EP_ENABLE) != USBFS_OUT_BUFFER_EMPTY){ 
 106:main.c        ****             USBFS_ReadOutEP(OUT_EP_ENABLE, piEnable, 1); //Transfer recieved byte with DMA         
 107:main.c        ****  
 108:main.c        ****         }
 109:main.c        ****         
 110:main.c        ****         if(!piEnable[0]){ //Enable or disable ADC 
 111:main.c        ****             ADC_CH1_StopConvert();
 112:main.c        ****             ADC_CH2_StopConvert();
 113:main.c        ****         }
 114:main.c        ****         else{            
 115:main.c        ****             ADC_CH1_StartConvert();
 116:main.c        ****             ADC_CH2_StartConvert();
 117:main.c        ****         }
 118:main.c        ****    
 119:main.c        ****         
 120:main.c        ****     }
 121:main.c        ****     
 122:main.c        **** }
 123:main.c        **** void DMA_setup(){
 124:main.c        ****     
 125:main.c        ****    /* Variable declarations for DMA_1 and DMA_2 */
 126:main.c        ****     uint8_t DMA_1_Chan;
 127:main.c        ****     uint8_t DMA_1_TD[2];
 128:main.c        ****     uint8_t DMA_2_Chan;
 129:main.c        ****     uint8_t DMA_2_TD[2];
 130:main.c        ****     
 131:main.c        ****     /* DMA Configuration for DMA_1 */
 132:main.c        ****     DMA_1_Chan = DMA_1_DmaInitialize(DMA_1_BYTES_PER_BURST, DMA_1_REQUEST_PER_BURST, 
 133:main.c        ****     HI16(DMA_1_SRC_BASE), HI16(DMA_1_DST_BASE));
 134:main.c        ****     DMA_1_TD[0] = CyDmaTdAllocate();
 135:main.c        ****     DMA_1_TD[1] = CyDmaTdAllocate();
 136:main.c        ****     CyDmaTdSetConfiguration(DMA_1_TD[0], BUFFER_SIZE, DMA_1_TD[1], DMA_1__TD_TERMOUT_EN | CY_DMA_TD
 137:main.c        ****     CyDmaTdSetConfiguration(DMA_1_TD[1], BUFFER_SIZE, DMA_1_TD[0], DMA_1__TD_TERMOUT_EN | CY_DMA_TD
 138:main.c        ****     CyDmaTdSetAddress(DMA_1_TD[0], LO16((uint32)ADC_CH1_SAR_WRK0_PTR), LO16((uint32)ch1Ping));
 139:main.c        ****     CyDmaTdSetAddress(DMA_1_TD[1], LO16((uint32)ADC_CH1_SAR_WRK0_PTR), LO16((uint32)ch1Pong));
 140:main.c        ****     CyDmaChSetInitialTd(DMA_1_Chan, DMA_1_TD[0]);
 141:main.c        ****     CyDmaChEnable(DMA_1_Chan, 1);
 142:main.c        **** 
 143:main.c        ****     /* DMA Configuration for DMA_2 */
 144:main.c        ****     DMA_2_Chan = DMA_2_DmaInitialize(DMA_2_BYTES_PER_BURST, DMA_2_REQUEST_PER_BURST, 
ARM GAS  C:\Users\Admin\AppData\Local\Temp\ccfJydJe.s 			page 4


 145:main.c        ****     HI16(DMA_2_SRC_BASE), HI16(DMA_2_DST_BASE));
 146:main.c        ****     DMA_2_TD[0] = CyDmaTdAllocate();
 147:main.c        ****     DMA_2_TD[1] = CyDmaTdAllocate();
 148:main.c        ****     CyDmaTdSetConfiguration(DMA_2_TD[0], BUFFER_SIZE, DMA_2_TD[1], DMA_2__TD_TERMOUT_EN | CY_DMA_TD
 149:main.c        ****     CyDmaTdSetConfiguration(DMA_2_TD[1], BUFFER_SIZE, DMA_2_TD[0], DMA_2__TD_TERMOUT_EN | CY_DMA_TD
 150:main.c        ****     CyDmaTdSetAddress(DMA_2_TD[0], LO16((uint32)ADC_CH2_SAR_WRK0_PTR), LO16((uint32)ch2Ping));
 151:main.c        ****     CyDmaTdSetAddress(DMA_2_TD[1], LO16((uint32)ADC_CH2_SAR_WRK0_PTR), LO16((uint32)ch2Pong));
 152:main.c        ****     CyDmaChSetInitialTd(DMA_2_Chan, DMA_2_TD[0]);
 153:main.c        ****     CyDmaChEnable(DMA_2_Chan, 1);
 154:main.c        **** }
 155:main.c        **** 
 156:main.c        **** void USB_setup(){
 157:main.c        ****     
 158:main.c        ****     /* Start USBFS operation with 5V operation. */
 159:main.c        ****     USBFS_Start(USBFS_DEVICE, USBFS_5V_OPERATION);
 160:main.c        ****     
 161:main.c        ****     /* Wait until device is enumerated by host. */
 162:main.c        ****     while(0 == USBFS_GetConfiguration()){}
 163:main.c        ****     
 164:main.c        ****     /* Enable OUT endpoint to receive data from host. */
 165:main.c        ****     USBFS_EnableOutEP(4u); 
 166:main.c        **** }
 167:main.c        **** 
 168:main.c        **** CY_ISR(ch1Transmit){
  28              		.loc 1 168 0
  29              		.cfi_startproc
  30              		@ args = 0, pretend = 0, frame = 0
  31              		@ frame_needed = 0, uses_anonymous_args = 0
  32 0000 08B5     		push	{r3, lr}
  33              		.cfi_def_cfa_offset 8
  34              		.cfi_offset 3, -8
  35              		.cfi_offset 14, -4
 169:main.c        ****     if(USBFS_GetEPState(IN_EP_CH1) == USBFS_IN_BUFFER_EMPTY){ //Check that host read data
  36              		.loc 1 169 0
  37 0002 0120     		movs	r0, #1
  38 0004 FFF7FEFF 		bl	USBFS_GetEPState
  39              	.LVL0:
  40 0008 0128     		cmp	r0, #1
  41 000a 0CD1     		bne	.L2
 170:main.c        ****         if(ch1Flag){
  42              		.loc 1 170 0
  43 000c 0C4B     		ldr	r3, .L6
  44 000e 1B78     		ldrb	r3, [r3]	@ zero_extendqisi2
  45 0010 23B1     		cbz	r3, .L3
 171:main.c        ****             USBFS_LoadInEP(IN_EP_CH1, ch1Ping, 64);   
  46              		.loc 1 171 0
  47 0012 4022     		movs	r2, #64
  48 0014 0B49     		ldr	r1, .L6+4
  49 0016 FFF7FEFF 		bl	USBFS_LoadInEP
  50              	.LVL1:
  51 001a 04E0     		b	.L2
  52              	.L3:
 172:main.c        ****         }
 173:main.c        ****         else
 174:main.c        ****             USBFS_LoadInEP(IN_EP_CH1, ch1Pong, 64);
  53              		.loc 1 174 0
  54 001c 4022     		movs	r2, #64
ARM GAS  C:\Users\Admin\AppData\Local\Temp\ccfJydJe.s 			page 5


  55 001e 0A49     		ldr	r1, .L6+8
  56 0020 0120     		movs	r0, #1
  57 0022 FFF7FEFF 		bl	USBFS_LoadInEP
  58              	.LVL2:
  59              	.L2:
 175:main.c        ****     }    
 176:main.c        ****     ch1Flag = (ch1Flag+1)%2; //Flip flag value
  60              		.loc 1 176 0
  61 0026 064B     		ldr	r3, .L6
  62 0028 1B78     		ldrb	r3, [r3]	@ zero_extendqisi2
  63 002a 0133     		adds	r3, r3, #1
  64 002c 074A     		ldr	r2, .L6+12
  65 002e 1340     		ands	r3, r3, r2
  66 0030 03D5     		bpl	.L4
  67 0032 013B     		subs	r3, r3, #1
  68 0034 63F00103 		orn	r3, r3, #1
  69 0038 0133     		adds	r3, r3, #1
  70              	.L4:
  71 003a 014A     		ldr	r2, .L6
  72 003c 1370     		strb	r3, [r2]
  73 003e 08BD     		pop	{r3, pc}
  74              	.L7:
  75              		.align	2
  76              	.L6:
  77 0040 00000000 		.word	.LANCHOR0
  78 0044 00000000 		.word	ch1Ping
  79 0048 00000000 		.word	ch1Pong
  80 004c 01000080 		.word	-2147483647
  81              		.cfi_endproc
  82              	.LFE66:
  83              		.size	ch1Transmit, .-ch1Transmit
  84              		.section	.text.ch2Transmit,"ax",%progbits
  85              		.align	2
  86              		.global	ch2Transmit
  87              		.thumb
  88              		.thumb_func
  89              		.type	ch2Transmit, %function
  90              	ch2Transmit:
  91              	.LFB67:
 177:main.c        **** }
 178:main.c        **** 
 179:main.c        **** CY_ISR(ch2Transmit){
  92              		.loc 1 179 0
  93              		.cfi_startproc
  94              		@ args = 0, pretend = 0, frame = 0
  95              		@ frame_needed = 0, uses_anonymous_args = 0
  96 0000 08B5     		push	{r3, lr}
  97              		.cfi_def_cfa_offset 8
  98              		.cfi_offset 3, -8
  99              		.cfi_offset 14, -4
 180:main.c        ****      if(USBFS_GetEPState(IN_EP_CH2) == USBFS_IN_BUFFER_EMPTY){
 100              		.loc 1 180 0
 101 0002 0220     		movs	r0, #2
 102 0004 FFF7FEFF 		bl	USBFS_GetEPState
 103              	.LVL3:
 104 0008 0128     		cmp	r0, #1
 105 000a 0DD1     		bne	.L9
ARM GAS  C:\Users\Admin\AppData\Local\Temp\ccfJydJe.s 			page 6


 181:main.c        ****         if(ch2Flag){
 106              		.loc 1 181 0
 107 000c 0D4B     		ldr	r3, .L13
 108 000e 5B78     		ldrb	r3, [r3, #1]	@ zero_extendqisi2
 109 0010 2BB1     		cbz	r3, .L10
 182:main.c        ****             USBFS_LoadInEP(IN_EP_CH2, ch2Ping, 64);   
 110              		.loc 1 182 0
 111 0012 4022     		movs	r2, #64
 112 0014 0C49     		ldr	r1, .L13+4
 113 0016 0220     		movs	r0, #2
 114 0018 FFF7FEFF 		bl	USBFS_LoadInEP
 115              	.LVL4:
 116 001c 04E0     		b	.L9
 117              	.L10:
 183:main.c        ****         }
 184:main.c        ****         else
 185:main.c        ****             USBFS_LoadInEP(IN_EP_CH2, ch2Pong, 64);
 118              		.loc 1 185 0
 119 001e 4022     		movs	r2, #64
 120 0020 0A49     		ldr	r1, .L13+8
 121 0022 0220     		movs	r0, #2
 122 0024 FFF7FEFF 		bl	USBFS_LoadInEP
 123              	.LVL5:
 124              	.L9:
 186:main.c        ****     }
 187:main.c        ****     ch2Flag = (ch2Flag+1)%2;    
 125              		.loc 1 187 0
 126 0028 064B     		ldr	r3, .L13
 127 002a 5B78     		ldrb	r3, [r3, #1]	@ zero_extendqisi2
 128 002c 0133     		adds	r3, r3, #1
 129 002e 084A     		ldr	r2, .L13+12
 130 0030 1340     		ands	r3, r3, r2
 131 0032 03D5     		bpl	.L11
 132 0034 013B     		subs	r3, r3, #1
 133 0036 63F00103 		orn	r3, r3, #1
 134 003a 0133     		adds	r3, r3, #1
 135              	.L11:
 136 003c 014A     		ldr	r2, .L13
 137 003e 5370     		strb	r3, [r2, #1]
 138 0040 08BD     		pop	{r3, pc}
 139              	.L14:
 140 0042 00BF     		.align	2
 141              	.L13:
 142 0044 00000000 		.word	.LANCHOR0
 143 0048 00000000 		.word	ch2Ping
 144 004c 00000000 		.word	ch2Pong
 145 0050 01000080 		.word	-2147483647
 146              		.cfi_endproc
 147              	.LFE67:
 148              		.size	ch2Transmit, .-ch2Transmit
 149              		.section	.text.potSample,"ax",%progbits
 150              		.align	2
 151              		.global	potSample
 152              		.thumb
 153              		.thumb_func
 154              		.type	potSample, %function
 155              	potSample:
ARM GAS  C:\Users\Admin\AppData\Local\Temp\ccfJydJe.s 			page 7


 156              	.LFB68:
 188:main.c        **** }
 189:main.c        **** 
 190:main.c        **** CY_ISR(potSample){
 157              		.loc 1 190 0
 158              		.cfi_startproc
 159              		@ args = 0, pretend = 0, frame = 0
 160              		@ frame_needed = 0, uses_anonymous_args = 0
 161 0000 10B5     		push	{r4, lr}
 162              		.cfi_def_cfa_offset 8
 163              		.cfi_offset 4, -8
 164              		.cfi_offset 14, -4
 191:main.c        ****     
 192:main.c        ****     Mux_FastSelect(0); //Select first pot to send ADC
 165              		.loc 1 192 0
 166 0002 0020     		movs	r0, #0
 167 0004 FFF7FEFF 		bl	Mux_FastSelect
 168              	.LVL6:
 193:main.c        ****     val1 = ADC_POT_Read8(); //Read first pot 
 169              		.loc 1 193 0
 170 0008 FFF7FEFF 		bl	ADC_POT_Read8
 171              	.LVL7:
 172 000c 124C     		ldr	r4, .L19
 173 000e 2070     		strb	r0, [r4]
 194:main.c        ****     
 195:main.c        ****     Mux_FastSelect(1); 
 174              		.loc 1 195 0
 175 0010 0120     		movs	r0, #1
 176 0012 FFF7FEFF 		bl	Mux_FastSelect
 177              	.LVL8:
 196:main.c        ****     val2 = ADC_POT_Read8();
 178              		.loc 1 196 0
 179 0016 FFF7FEFF 		bl	ADC_POT_Read8
 180              	.LVL9:
 181 001a C0B2     		uxtb	r0, r0
 182 001c 6070     		strb	r0, [r4, #1]
 197:main.c        ****     
 198:main.c        ****     //Debounce pot readings and send to Pi
 199:main.c        ****     if(((val1 < val1Old-DEBOUNCE_VALUE) || (val1 > val1Old+DEBOUNCE_VALUE)) || 
 183              		.loc 1 199 0
 184 001e 2278     		ldrb	r2, [r4]	@ zero_extendqisi2
 185 0020 A378     		ldrb	r3, [r4, #2]	@ zero_extendqisi2
 186 0022 591F     		subs	r1, r3, #5
 187 0024 8A42     		cmp	r2, r1
 188 0026 09DB     		blt	.L16
 189              		.loc 1 199 0 is_stmt 0 discriminator 1
 190 0028 0533     		adds	r3, r3, #5
 191 002a 9A42     		cmp	r2, r3
 192 002c 06DC     		bgt	.L16
 200:main.c        ****     ((val2 < val2Old-DEBOUNCE_VALUE) || (val2 > val2Old+DEBOUNCE_VALUE))){
 193              		.loc 1 200 0 is_stmt 1 discriminator 2
 194 002e E378     		ldrb	r3, [r4, #3]	@ zero_extendqisi2
 195 0030 591F     		subs	r1, r3, #5
 199:main.c        ****     ((val2 < val2Old-DEBOUNCE_VALUE) || (val2 > val2Old+DEBOUNCE_VALUE))){
 196              		.loc 1 199 0 discriminator 2
 197 0032 8842     		cmp	r0, r1
 198 0034 02DB     		blt	.L16
ARM GAS  C:\Users\Admin\AppData\Local\Temp\ccfJydJe.s 			page 8


 199              		.loc 1 200 0
 200 0036 0533     		adds	r3, r3, #5
 201 0038 9842     		cmp	r0, r3
 202 003a 06DD     		ble	.L17
 203              	.L16:
 201:main.c        ****         potVals[0] = val1;
 204              		.loc 1 201 0
 205 003c 0749     		ldr	r1, .L19+4
 206 003e 0A70     		strb	r2, [r1]
 202:main.c        ****         potVals[1] = val2;
 207              		.loc 1 202 0
 208 0040 4870     		strb	r0, [r1, #1]
 203:main.c        ****         USBFS_LoadInEP(IN_EP_POT, potVals, 2);
 209              		.loc 1 203 0
 210 0042 0222     		movs	r2, #2
 211 0044 0320     		movs	r0, #3
 212 0046 FFF7FEFF 		bl	USBFS_LoadInEP
 213              	.LVL10:
 214              	.L17:
 204:main.c        ****        }
 205:main.c        ****  
 206:main.c        ****     val1Old = val1; //Store values for later debouncing
 215              		.loc 1 206 0
 216 004a 034B     		ldr	r3, .L19
 217 004c 1A78     		ldrb	r2, [r3]	@ zero_extendqisi2
 218 004e 9A70     		strb	r2, [r3, #2]
 207:main.c        ****     val2Old = val2;
 219              		.loc 1 207 0
 220 0050 5A78     		ldrb	r2, [r3, #1]	@ zero_extendqisi2
 221 0052 DA70     		strb	r2, [r3, #3]
 222 0054 10BD     		pop	{r4, pc}
 223              	.L20:
 224 0056 00BF     		.align	2
 225              	.L19:
 226 0058 00000000 		.word	.LANCHOR1
 227 005c 00000000 		.word	potVals
 228              		.cfi_endproc
 229              	.LFE68:
 230              		.size	potSample, .-potSample
 231              		.section	.text.DMA_setup,"ax",%progbits
 232              		.align	2
 233              		.global	DMA_setup
 234              		.thumb
 235              		.thumb_func
 236              		.type	DMA_setup, %function
 237              	DMA_setup:
 238              	.LFB64:
 123:main.c        ****     
 239              		.loc 1 123 0
 240              		.cfi_startproc
 241              		@ args = 0, pretend = 0, frame = 0
 242              		@ frame_needed = 0, uses_anonymous_args = 0
 243 0000 70B5     		push	{r4, r5, r6, lr}
 244              		.cfi_def_cfa_offset 16
 245              		.cfi_offset 4, -16
 246              		.cfi_offset 5, -12
 247              		.cfi_offset 6, -8
ARM GAS  C:\Users\Admin\AppData\Local\Temp\ccfJydJe.s 			page 9


 248              		.cfi_offset 14, -4
 132:main.c        ****     HI16(DMA_1_SRC_BASE), HI16(DMA_1_DST_BASE));
 249              		.loc 1 132 0
 250 0002 41F6FF73 		movw	r3, #8191
 251 0006 4FF48042 		mov	r2, #16384
 252 000a 0121     		movs	r1, #1
 253 000c 0846     		mov	r0, r1
 254 000e FFF7FEFF 		bl	DMA_1_DmaInitialize
 255              	.LVL11:
 256 0012 0646     		mov	r6, r0
 257              	.LVL12:
 134:main.c        ****     DMA_1_TD[1] = CyDmaTdAllocate();
 258              		.loc 1 134 0
 259 0014 FFF7FEFF 		bl	CyDmaTdAllocate
 260              	.LVL13:
 261 0018 0446     		mov	r4, r0
 135:main.c        ****     CyDmaTdSetConfiguration(DMA_1_TD[0], BUFFER_SIZE, DMA_1_TD[1], DMA_1__TD_TERMOUT_EN | CY_DMA_TD
 262              		.loc 1 135 0
 263 001a FFF7FEFF 		bl	CyDmaTdAllocate
 264              	.LVL14:
 265 001e 0546     		mov	r5, r0
 136:main.c        ****     CyDmaTdSetConfiguration(DMA_1_TD[1], BUFFER_SIZE, DMA_1_TD[0], DMA_1__TD_TERMOUT_EN | CY_DMA_TD
 266              		.loc 1 136 0
 267 0020 0623     		movs	r3, #6
 268 0022 0246     		mov	r2, r0
 269 0024 4021     		movs	r1, #64
 270 0026 2046     		mov	r0, r4
 271 0028 FFF7FEFF 		bl	CyDmaTdSetConfiguration
 272              	.LVL15:
 137:main.c        ****     CyDmaTdSetAddress(DMA_1_TD[0], LO16((uint32)ADC_CH1_SAR_WRK0_PTR), LO16((uint32)ch1Ping));
 273              		.loc 1 137 0
 274 002c 0623     		movs	r3, #6
 275 002e 2246     		mov	r2, r4
 276 0030 4021     		movs	r1, #64
 277 0032 2846     		mov	r0, r5
 278 0034 FFF7FEFF 		bl	CyDmaTdSetConfiguration
 279              	.LVL16:
 138:main.c        ****     CyDmaTdSetAddress(DMA_1_TD[1], LO16((uint32)ADC_CH1_SAR_WRK0_PTR), LO16((uint32)ch1Pong));
 280              		.loc 1 138 0
 281 0038 234A     		ldr	r2, .L23
 282 003a 92B2     		uxth	r2, r2
 283 003c 45F6A231 		movw	r1, #23458
 284 0040 2046     		mov	r0, r4
 285 0042 FFF7FEFF 		bl	CyDmaTdSetAddress
 286              	.LVL17:
 139:main.c        ****     CyDmaChSetInitialTd(DMA_1_Chan, DMA_1_TD[0]);
 287              		.loc 1 139 0
 288 0046 214A     		ldr	r2, .L23+4
 289 0048 92B2     		uxth	r2, r2
 290 004a 45F6A231 		movw	r1, #23458
 291 004e 2846     		mov	r0, r5
 292 0050 FFF7FEFF 		bl	CyDmaTdSetAddress
 293              	.LVL18:
 140:main.c        ****     CyDmaChEnable(DMA_1_Chan, 1);
 294              		.loc 1 140 0
 295 0054 2146     		mov	r1, r4
 296 0056 3046     		mov	r0, r6
ARM GAS  C:\Users\Admin\AppData\Local\Temp\ccfJydJe.s 			page 10


 297 0058 FFF7FEFF 		bl	CyDmaChSetInitialTd
 298              	.LVL19:
 141:main.c        **** 
 299              		.loc 1 141 0
 300 005c 0121     		movs	r1, #1
 301 005e 3046     		mov	r0, r6
 302 0060 FFF7FEFF 		bl	CyDmaChEnable
 303              	.LVL20:
 144:main.c        ****     HI16(DMA_2_SRC_BASE), HI16(DMA_2_DST_BASE));
 304              		.loc 1 144 0
 305 0064 41F6FF73 		movw	r3, #8191
 306 0068 4FF48042 		mov	r2, #16384
 307 006c 0121     		movs	r1, #1
 308 006e 0846     		mov	r0, r1
 309 0070 FFF7FEFF 		bl	DMA_2_DmaInitialize
 310              	.LVL21:
 311 0074 0646     		mov	r6, r0
 312              	.LVL22:
 146:main.c        ****     DMA_2_TD[1] = CyDmaTdAllocate();
 313              		.loc 1 146 0
 314 0076 FFF7FEFF 		bl	CyDmaTdAllocate
 315              	.LVL23:
 316 007a 0446     		mov	r4, r0
 147:main.c        ****     CyDmaTdSetConfiguration(DMA_2_TD[0], BUFFER_SIZE, DMA_2_TD[1], DMA_2__TD_TERMOUT_EN | CY_DMA_TD
 317              		.loc 1 147 0
 318 007c FFF7FEFF 		bl	CyDmaTdAllocate
 319              	.LVL24:
 320 0080 0546     		mov	r5, r0
 148:main.c        ****     CyDmaTdSetConfiguration(DMA_2_TD[1], BUFFER_SIZE, DMA_2_TD[0], DMA_2__TD_TERMOUT_EN | CY_DMA_TD
 321              		.loc 1 148 0
 322 0082 0623     		movs	r3, #6
 323 0084 0246     		mov	r2, r0
 324 0086 4021     		movs	r1, #64
 325 0088 2046     		mov	r0, r4
 326 008a FFF7FEFF 		bl	CyDmaTdSetConfiguration
 327              	.LVL25:
 149:main.c        ****     CyDmaTdSetAddress(DMA_2_TD[0], LO16((uint32)ADC_CH2_SAR_WRK0_PTR), LO16((uint32)ch2Ping));
 328              		.loc 1 149 0
 329 008e 0623     		movs	r3, #6
 330 0090 2246     		mov	r2, r4
 331 0092 4021     		movs	r1, #64
 332 0094 2846     		mov	r0, r5
 333 0096 FFF7FEFF 		bl	CyDmaTdSetConfiguration
 334              	.LVL26:
 150:main.c        ****     CyDmaTdSetAddress(DMA_2_TD[1], LO16((uint32)ADC_CH2_SAR_WRK0_PTR), LO16((uint32)ch2Pong));
 335              		.loc 1 150 0
 336 009a 0D4A     		ldr	r2, .L23+8
 337 009c 92B2     		uxth	r2, r2
 338 009e 45F6A031 		movw	r1, #23456
 339 00a2 2046     		mov	r0, r4
 340 00a4 FFF7FEFF 		bl	CyDmaTdSetAddress
 341              	.LVL27:
 151:main.c        ****     CyDmaChSetInitialTd(DMA_2_Chan, DMA_2_TD[0]);
 342              		.loc 1 151 0
 343 00a8 0A4A     		ldr	r2, .L23+12
 344 00aa 92B2     		uxth	r2, r2
 345 00ac 45F6A031 		movw	r1, #23456
ARM GAS  C:\Users\Admin\AppData\Local\Temp\ccfJydJe.s 			page 11


 346 00b0 2846     		mov	r0, r5
 347 00b2 FFF7FEFF 		bl	CyDmaTdSetAddress
 348              	.LVL28:
 152:main.c        ****     CyDmaChEnable(DMA_2_Chan, 1);
 349              		.loc 1 152 0
 350 00b6 2146     		mov	r1, r4
 351 00b8 3046     		mov	r0, r6
 352 00ba FFF7FEFF 		bl	CyDmaChSetInitialTd
 353              	.LVL29:
 153:main.c        **** }
 354              		.loc 1 153 0
 355 00be 0121     		movs	r1, #1
 356 00c0 3046     		mov	r0, r6
 357 00c2 FFF7FEFF 		bl	CyDmaChEnable
 358              	.LVL30:
 359 00c6 70BD     		pop	{r4, r5, r6, pc}
 360              	.LVL31:
 361              	.L24:
 362              		.align	2
 363              	.L23:
 364 00c8 00000000 		.word	ch1Ping
 365 00cc 00000000 		.word	ch1Pong
 366 00d0 00000000 		.word	ch2Ping
 367 00d4 00000000 		.word	ch2Pong
 368              		.cfi_endproc
 369              	.LFE64:
 370              		.size	DMA_setup, .-DMA_setup
 371              		.section	.text.USB_setup,"ax",%progbits
 372              		.align	2
 373              		.global	USB_setup
 374              		.thumb
 375              		.thumb_func
 376              		.type	USB_setup, %function
 377              	USB_setup:
 378              	.LFB65:
 156:main.c        ****     
 379              		.loc 1 156 0
 380              		.cfi_startproc
 381              		@ args = 0, pretend = 0, frame = 0
 382              		@ frame_needed = 0, uses_anonymous_args = 0
 383 0000 08B5     		push	{r3, lr}
 384              		.cfi_def_cfa_offset 8
 385              		.cfi_offset 3, -8
 386              		.cfi_offset 14, -4
 159:main.c        ****     
 387              		.loc 1 159 0
 388 0002 0121     		movs	r1, #1
 389 0004 0020     		movs	r0, #0
 390 0006 FFF7FEFF 		bl	USBFS_Start
 391              	.LVL32:
 392              	.L26:
 162:main.c        ****     
 393              		.loc 1 162 0 discriminator 1
 394 000a FFF7FEFF 		bl	USBFS_GetConfiguration
 395              	.LVL33:
 396 000e 0028     		cmp	r0, #0
 397 0010 FBD0     		beq	.L26
ARM GAS  C:\Users\Admin\AppData\Local\Temp\ccfJydJe.s 			page 12


 165:main.c        **** }
 398              		.loc 1 165 0
 399 0012 0420     		movs	r0, #4
 400 0014 FFF7FEFF 		bl	USBFS_EnableOutEP
 401              	.LVL34:
 402 0018 08BD     		pop	{r3, pc}
 403              		.cfi_endproc
 404              	.LFE65:
 405              		.size	USB_setup, .-USB_setup
 406 001a 00BF     		.section	.text.main,"ax",%progbits
 407              		.align	2
 408              		.global	main
 409              		.thumb
 410              		.thumb_func
 411              		.type	main, %function
 412              	main:
 413              	.LFB63:
  68:main.c        ****     CyGlobalIntEnable; /* Enable global interrupts. */
 414              		.loc 1 68 0
 415              		.cfi_startproc
 416              		@ args = 0, pretend = 0, frame = 0
 417              		@ frame_needed = 0, uses_anonymous_args = 0
 418 0000 08B5     		push	{r3, lr}
 419              		.cfi_def_cfa_offset 8
 420              		.cfi_offset 3, -8
 421              		.cfi_offset 14, -4
  69:main.c        ****     
 422              		.loc 1 69 0
 423              		.syntax unified
 424              	@ 69 "main.c" 1
 425 0002 62B6     		CPSIE   i
 426              	@ 0 "" 2
  71:main.c        ****     USB_setup();
 427              		.loc 1 71 0
 428              		.thumb
 429              		.syntax unified
 430 0004 FFF7FEFF 		bl	DMA_setup
 431              	.LVL35:
  72:main.c        ****     Mux_Start();
 432              		.loc 1 72 0
 433 0008 FFF7FEFF 		bl	USB_setup
 434              	.LVL36:
  73:main.c        ****     Timer_1_Start();
 435              		.loc 1 73 0
 436 000c FFF7FEFF 		bl	Mux_Start
 437              	.LVL37:
  74:main.c        ****     isr_1_StartEx(ch1Transmit);
 438              		.loc 1 74 0
 439 0010 FFF7FEFF 		bl	Timer_1_Start
 440              	.LVL38:
  75:main.c        ****     isr_2_StartEx(ch2Transmit);
 441              		.loc 1 75 0
 442 0014 2148     		ldr	r0, .L37
 443 0016 FFF7FEFF 		bl	isr_1_StartEx
 444              	.LVL39:
  76:main.c        ****     isr_pot_StartEx(potSample);
 445              		.loc 1 76 0
ARM GAS  C:\Users\Admin\AppData\Local\Temp\ccfJydJe.s 			page 13


 446 001a 2148     		ldr	r0, .L37+4
 447 001c FFF7FEFF 		bl	isr_2_StartEx
 448              	.LVL40:
  77:main.c        ****     ADC_CH1_Start();
 449              		.loc 1 77 0
 450 0020 2048     		ldr	r0, .L37+8
 451 0022 FFF7FEFF 		bl	isr_pot_StartEx
 452              	.LVL41:
  78:main.c        ****     ADC_CH2_Start();
 453              		.loc 1 78 0
 454 0026 FFF7FEFF 		bl	ADC_CH1_Start
 455              	.LVL42:
  79:main.c        ****     ADC_CH1_StartConvert();
 456              		.loc 1 79 0
 457 002a FFF7FEFF 		bl	ADC_CH2_Start
 458              	.LVL43:
  80:main.c        ****     ADC_CH2_StartConvert();
 459              		.loc 1 80 0
 460 002e FFF7FEFF 		bl	ADC_CH1_StartConvert
 461              	.LVL44:
  81:main.c        ****     ADC_POT_Start();
 462              		.loc 1 81 0
 463 0032 FFF7FEFF 		bl	ADC_CH2_StartConvert
 464              	.LVL45:
  82:main.c        ****     ADC_POT_StartConvert();
 465              		.loc 1 82 0
 466 0036 FFF7FEFF 		bl	ADC_POT_Start
 467              	.LVL46:
  83:main.c        ****     
 468              		.loc 1 83 0
 469 003a FFF7FEFF 		bl	ADC_POT_StartConvert
 470              	.LVL47:
 471              	.LBB2:
  86:main.c        ****         ch1Ping[i] = 0;
 472              		.loc 1 86 0
 473 003e 0023     		movs	r3, #0
 474 0040 0AE0     		b	.L29
 475              	.LVL48:
 476              	.L30:
  87:main.c        ****         ch1Pong[i] = 0;
 477              		.loc 1 87 0 discriminator 3
 478 0042 0022     		movs	r2, #0
 479 0044 1849     		ldr	r1, .L37+12
 480 0046 CA54     		strb	r2, [r1, r3]
  88:main.c        ****         ch2Ping[i] = 0;
 481              		.loc 1 88 0 discriminator 3
 482 0048 1849     		ldr	r1, .L37+16
 483 004a CA54     		strb	r2, [r1, r3]
  89:main.c        ****         ch2Pong[i] = 0;
 484              		.loc 1 89 0 discriminator 3
 485 004c 1849     		ldr	r1, .L37+20
 486 004e CA54     		strb	r2, [r1, r3]
  90:main.c        ****     }
 487              		.loc 1 90 0 discriminator 3
 488 0050 1849     		ldr	r1, .L37+24
 489 0052 CA54     		strb	r2, [r1, r3]
  86:main.c        ****         ch1Ping[i] = 0;
ARM GAS  C:\Users\Admin\AppData\Local\Temp\ccfJydJe.s 			page 14


 490              		.loc 1 86 0 discriminator 3
 491 0054 0133     		adds	r3, r3, #1
 492              	.LVL49:
 493 0056 DBB2     		uxtb	r3, r3
 494              	.LVL50:
 495              	.L29:
  86:main.c        ****         ch1Ping[i] = 0;
 496              		.loc 1 86 0 is_stmt 0 discriminator 1
 497 0058 3F2B     		cmp	r3, #63
 498 005a F2D9     		bls	.L30
 499              	.LVL51:
 500              	.L31:
 501              	.LBE2:
  97:main.c        ****             /* Re-enable endpoint when device is configured. */
 502              		.loc 1 97 0 is_stmt 1
 503 005c FFF7FEFF 		bl	USBFS_IsConfigurationChanged
 504              	.LVL52:
 505 0060 28B1     		cbz	r0, .L32
  99:main.c        ****                 /* Enable OUT endpoint to receive data from host. */
 506              		.loc 1 99 0
 507 0062 FFF7FEFF 		bl	USBFS_GetConfiguration
 508              	.LVL53:
 509 0066 10B1     		cbz	r0, .L32
 101:main.c        ****             }
 510              		.loc 1 101 0
 511 0068 0420     		movs	r0, #4
 512 006a FFF7FEFF 		bl	USBFS_EnableOutEP
 513              	.LVL54:
 514              	.L32:
 105:main.c        ****             USBFS_ReadOutEP(OUT_EP_ENABLE, piEnable, 1); //Transfer recieved byte with DMA         
 515              		.loc 1 105 0
 516 006e 0420     		movs	r0, #4
 517 0070 FFF7FEFF 		bl	USBFS_GetEPState
 518              	.LVL55:
 519 0074 20B1     		cbz	r0, .L33
 106:main.c        ****  
 520              		.loc 1 106 0
 521 0076 0122     		movs	r2, #1
 522 0078 0F49     		ldr	r1, .L37+28
 523 007a 0420     		movs	r0, #4
 524 007c FFF7FEFF 		bl	USBFS_ReadOutEP
 525              	.LVL56:
 526              	.L33:
 110:main.c        ****             ADC_CH1_StopConvert();
 527              		.loc 1 110 0
 528 0080 0D4B     		ldr	r3, .L37+28
 529 0082 1B78     		ldrb	r3, [r3]	@ zero_extendqisi2
 530 0084 23B9     		cbnz	r3, .L34
 111:main.c        ****             ADC_CH2_StopConvert();
 531              		.loc 1 111 0
 532 0086 FFF7FEFF 		bl	ADC_CH1_StopConvert
 533              	.LVL57:
 112:main.c        ****         }
 534              		.loc 1 112 0
 535 008a FFF7FEFF 		bl	ADC_CH2_StopConvert
 536              	.LVL58:
 537 008e E5E7     		b	.L31
ARM GAS  C:\Users\Admin\AppData\Local\Temp\ccfJydJe.s 			page 15


 538              	.L34:
 115:main.c        ****             ADC_CH2_StartConvert();
 539              		.loc 1 115 0
 540 0090 FFF7FEFF 		bl	ADC_CH1_StartConvert
 541              	.LVL59:
 116:main.c        ****         }
 542              		.loc 1 116 0
 543 0094 FFF7FEFF 		bl	ADC_CH2_StartConvert
 544              	.LVL60:
 545 0098 E0E7     		b	.L31
 546              	.L38:
 547 009a 00BF     		.align	2
 548              	.L37:
 549 009c 00000000 		.word	ch1Transmit
 550 00a0 00000000 		.word	ch2Transmit
 551 00a4 00000000 		.word	potSample
 552 00a8 00000000 		.word	ch1Ping
 553 00ac 00000000 		.word	ch1Pong
 554 00b0 00000000 		.word	ch2Ping
 555 00b4 00000000 		.word	ch2Pong
 556 00b8 00000000 		.word	piEnable
 557              		.cfi_endproc
 558              	.LFE63:
 559              		.size	main, .-main
 560              		.global	ch2Flag
 561              		.global	ch1Flag
 562              		.global	val2Old
 563              		.global	val1Old
 564              		.global	val2
 565              		.global	val1
 566              		.comm	potVals,2,4
 567              		.comm	ch2Pong,64,4
 568              		.comm	ch2Ping,64,4
 569              		.comm	ch1Pong,64,4
 570              		.comm	ch1Ping,64,4
 571              		.comm	buffer,64,4
 572              		.comm	piEnable,1,4
 573              		.data
 574              		.set	.LANCHOR0,. + 0
 575              		.type	ch1Flag, %object
 576              		.size	ch1Flag, 1
 577              	ch1Flag:
 578 0000 01       		.byte	1
 579              		.type	ch2Flag, %object
 580              		.size	ch2Flag, 1
 581              	ch2Flag:
 582 0001 01       		.byte	1
 583              		.bss
 584              		.set	.LANCHOR1,. + 0
 585              		.type	val1, %object
 586              		.size	val1, 1
 587              	val1:
 588 0000 00       		.space	1
 589              		.type	val2, %object
 590              		.size	val2, 1
 591              	val2:
 592 0001 00       		.space	1
ARM GAS  C:\Users\Admin\AppData\Local\Temp\ccfJydJe.s 			page 16


 593              		.type	val1Old, %object
 594              		.size	val1Old, 1
 595              	val1Old:
 596 0002 00       		.space	1
 597              		.type	val2Old, %object
 598              		.size	val2Old, 1
 599              	val2Old:
 600 0003 00       		.space	1
 601              		.text
 602              	.Letext0:
 603              		.file 2 "c:\\program files (x86)\\cypress\\psoc creator\\4.2\\psoc creator\\import\\gnu\\arm\\5.4.
 604              		.file 3 "c:\\program files (x86)\\cypress\\psoc creator\\4.2\\psoc creator\\import\\gnu\\arm\\5.4.
 605              		.file 4 "Generated_Source\\PSoC5/cytypes.h"
 606              		.file 5 "Generated_Source\\PSoC5/core_cm3.h"
 607              		.file 6 "Generated_Source\\PSoC5/USBFS.h"
 608              		.file 7 "Generated_Source\\PSoC5/Mux.h"
 609              		.file 8 "Generated_Source\\PSoC5/ADC_POT.h"
 610              		.file 9 "Generated_Source\\PSoC5/DMA_1_dma.h"
 611              		.file 10 "Generated_Source\\PSoC5/CyDmac.h"
 612              		.file 11 "Generated_Source\\PSoC5/DMA_2_dma.h"
 613              		.file 12 "Generated_Source\\PSoC5/Timer_1.h"
 614              		.file 13 "Generated_Source\\PSoC5/isr_1.h"
 615              		.file 14 "Generated_Source\\PSoC5/isr_2.h"
 616              		.file 15 "Generated_Source\\PSoC5/isr_pot.h"
 617              		.file 16 "Generated_Source\\PSoC5/ADC_CH1.h"
 618              		.file 17 "Generated_Source\\PSoC5/ADC_CH2.h"