ARM GAS  C:\Users\Admin\AppData\Local\Temp\ccLuJTHH.s 			page 1


   1              		.syntax unified
   2              		.cpu cortex-m3
   3              		.fpu softvfp
   4              		.eabi_attribute 20, 1
   5              		.eabi_attribute 21, 1
   6              		.eabi_attribute 23, 3
   7              		.eabi_attribute 24, 1
   8              		.eabi_attribute 25, 1
   9              		.eabi_attribute 26, 1
  10              		.eabi_attribute 30, 1
  11              		.eabi_attribute 34, 1
  12              		.eabi_attribute 18, 4
  13              		.thumb
  14              		.syntax unified
  15              		.file	"USBFS_episr.c"
  16              		.text
  17              	.Ltext0:
  18              		.cfi_sections	.debug_frame
  19              		.section	.text.USBFS_EP_1_ISR,"ax",%progbits
  20              		.align	2
  21              		.global	USBFS_EP_1_ISR
  22              		.thumb
  23              		.thumb_func
  24              		.type	USBFS_EP_1_ISR, %function
  25              	USBFS_EP_1_ISR:
  26              	.LFB0:
  27              		.file 1 "Generated_Source\\PSoC5\\USBFS_episr.c"
   1:Generated_Source\PSoC5/USBFS_episr.c **** /***************************************************************************//**
   2:Generated_Source\PSoC5/USBFS_episr.c **** * \file USBFS_episr.c
   3:Generated_Source\PSoC5/USBFS_episr.c **** * \version 3.20
   4:Generated_Source\PSoC5/USBFS_episr.c **** *
   5:Generated_Source\PSoC5/USBFS_episr.c **** * \brief
   6:Generated_Source\PSoC5/USBFS_episr.c **** *  This file contains the Data endpoint Interrupt Service Routines.
   7:Generated_Source\PSoC5/USBFS_episr.c **** *
   8:Generated_Source\PSoC5/USBFS_episr.c **** ********************************************************************************
   9:Generated_Source\PSoC5/USBFS_episr.c **** * \copyright
  10:Generated_Source\PSoC5/USBFS_episr.c **** * Copyright 2008-2016, Cypress Semiconductor Corporation.  All rights reserved.
  11:Generated_Source\PSoC5/USBFS_episr.c **** * You may use this file only in accordance with the license, terms, conditions,
  12:Generated_Source\PSoC5/USBFS_episr.c **** * disclaimers, and limitations in the end user license agreement accompanying
  13:Generated_Source\PSoC5/USBFS_episr.c **** * the software package with which this file was provided.
  14:Generated_Source\PSoC5/USBFS_episr.c **** *******************************************************************************/
  15:Generated_Source\PSoC5/USBFS_episr.c **** 
  16:Generated_Source\PSoC5/USBFS_episr.c **** #include "USBFS_pvt.h"
  17:Generated_Source\PSoC5/USBFS_episr.c **** #include "USBFS_cydmac.h"
  18:Generated_Source\PSoC5/USBFS_episr.c **** #include "cyapicallbacks.h"
  19:Generated_Source\PSoC5/USBFS_episr.c **** 
  20:Generated_Source\PSoC5/USBFS_episr.c **** 
  21:Generated_Source\PSoC5/USBFS_episr.c **** /***************************************
  22:Generated_Source\PSoC5/USBFS_episr.c **** * Custom Declarations
  23:Generated_Source\PSoC5/USBFS_episr.c **** ***************************************/
  24:Generated_Source\PSoC5/USBFS_episr.c **** /* `#START CUSTOM_DECLARATIONS` Place your declaration here */
  25:Generated_Source\PSoC5/USBFS_episr.c **** 
  26:Generated_Source\PSoC5/USBFS_episr.c **** /* `#END` */
  27:Generated_Source\PSoC5/USBFS_episr.c **** 
  28:Generated_Source\PSoC5/USBFS_episr.c **** 
  29:Generated_Source\PSoC5/USBFS_episr.c **** #if (USBFS_EP1_ISR_ACTIVE)
  30:Generated_Source\PSoC5/USBFS_episr.c ****     /******************************************************************************
ARM GAS  C:\Users\Admin\AppData\Local\Temp\ccLuJTHH.s 			page 2


  31:Generated_Source\PSoC5/USBFS_episr.c ****     * Function Name: USBFS_EP_1_ISR
  32:Generated_Source\PSoC5/USBFS_episr.c ****     ***************************************************************************//**
  33:Generated_Source\PSoC5/USBFS_episr.c ****     *
  34:Generated_Source\PSoC5/USBFS_episr.c ****     *  Endpoint 1 Interrupt Service Routine
  35:Generated_Source\PSoC5/USBFS_episr.c ****     *
  36:Generated_Source\PSoC5/USBFS_episr.c ****     ******************************************************************************/
  37:Generated_Source\PSoC5/USBFS_episr.c ****     CY_ISR(USBFS_EP_1_ISR)
  38:Generated_Source\PSoC5/USBFS_episr.c ****     {
  28              		.loc 1 38 0
  29              		.cfi_startproc
  30              		@ args = 0, pretend = 0, frame = 0
  31              		@ frame_needed = 0, uses_anonymous_args = 0
  32              		@ link register save eliminated.
  39:Generated_Source\PSoC5/USBFS_episr.c **** 
  40:Generated_Source\PSoC5/USBFS_episr.c ****     #ifdef USBFS_EP_1_ISR_ENTRY_CALLBACK
  41:Generated_Source\PSoC5/USBFS_episr.c ****         USBFS_EP_1_ISR_EntryCallback();
  42:Generated_Source\PSoC5/USBFS_episr.c ****     #endif /* (USBFS_EP_1_ISR_ENTRY_CALLBACK) */
  43:Generated_Source\PSoC5/USBFS_episr.c **** 
  44:Generated_Source\PSoC5/USBFS_episr.c ****         /* `#START EP1_USER_CODE` Place your code here */
  45:Generated_Source\PSoC5/USBFS_episr.c **** 
  46:Generated_Source\PSoC5/USBFS_episr.c ****         /* `#END` */
  47:Generated_Source\PSoC5/USBFS_episr.c **** 
  48:Generated_Source\PSoC5/USBFS_episr.c ****     #if (CY_PSOC3 && defined(USBFS_ENABLE_MIDI_STREAMING) && \
  49:Generated_Source\PSoC5/USBFS_episr.c ****         !defined(USBFS_MAIN_SERVICE_MIDI_OUT) && USBFS_ISR_SERVICE_MIDI_OUT)
  50:Generated_Source\PSoC5/USBFS_episr.c ****         {
  51:Generated_Source\PSoC5/USBFS_episr.c ****             uint8 intEn = EA;
  52:Generated_Source\PSoC5/USBFS_episr.c ****             CyGlobalIntEnable;  /* Enable nested interrupts. */
  53:Generated_Source\PSoC5/USBFS_episr.c ****     #endif /* (CY_PSOC3 && USBFS_ISR_SERVICE_MIDI_OUT) */
  54:Generated_Source\PSoC5/USBFS_episr.c ****     
  55:Generated_Source\PSoC5/USBFS_episr.c ****         USBFS_ClearSieEpInterruptSource(USBFS_SIE_INT_EP1_INTR);
  33              		.loc 1 55 0
  34 0000 0122     		movs	r2, #1
  35 0002 094B     		ldr	r3, .L3
  36 0004 1A70     		strb	r2, [r3]
  56:Generated_Source\PSoC5/USBFS_episr.c ****             
  57:Generated_Source\PSoC5/USBFS_episr.c ****         /* Notifies user that transfer IN or OUT transfer is completed.
  58:Generated_Source\PSoC5/USBFS_episr.c ****         * IN endpoint: endpoint buffer can be reloaded, Host is read data.
  59:Generated_Source\PSoC5/USBFS_episr.c ****         * OUT endpoint: data is ready to be read from endpoint buffer. 
  60:Generated_Source\PSoC5/USBFS_episr.c ****         */
  61:Generated_Source\PSoC5/USBFS_episr.c ****     #if (CY_PSOC4 && USBFS_EP_MANAGEMENT_DMA_AUTO)
  62:Generated_Source\PSoC5/USBFS_episr.c ****         if (0u != (USBFS_EP[USBFS_EP1].addr & USBFS_DIR_IN))
  63:Generated_Source\PSoC5/USBFS_episr.c ****     #endif /* (CY_PSOC4 && USBFS_EP_MANAGEMENT_DMA_AUTO) */
  64:Generated_Source\PSoC5/USBFS_episr.c ****         {
  65:Generated_Source\PSoC5/USBFS_episr.c ****             /* Read CR0 register to clear SIE lock. */
  66:Generated_Source\PSoC5/USBFS_episr.c ****             (void) USBFS_SIE_EP_BASE.sieEp[USBFS_EP1].epCr0;
  37              		.loc 1 66 0
  38 0006 0F3B     		subs	r3, r3, #15
  39 0008 9B7C     		ldrb	r3, [r3, #18]	@ zero_extendqisi2
  67:Generated_Source\PSoC5/USBFS_episr.c ****             
  68:Generated_Source\PSoC5/USBFS_episr.c ****             /* Toggle all endpoint types except ISOC. */
  69:Generated_Source\PSoC5/USBFS_episr.c ****             if (USBFS_GET_EP_TYPE(USBFS_EP1) != USBFS_EP_TYPE_ISOC)
  40              		.loc 1 69 0
  41 000a 084B     		ldr	r3, .L3+4
  42 000c 1B7B     		ldrb	r3, [r3, #12]	@ zero_extendqisi2
  43 000e 03F00303 		and	r3, r3, #3
  44 0012 9342     		cmp	r3, r2
  45 0014 04D0     		beq	.L2
ARM GAS  C:\Users\Admin\AppData\Local\Temp\ccLuJTHH.s 			page 3


  70:Generated_Source\PSoC5/USBFS_episr.c ****             {
  71:Generated_Source\PSoC5/USBFS_episr.c ****                 USBFS_EP[USBFS_EP1].epToggle ^= USBFS_EPX_CNT_DATA_TOGGLE;
  46              		.loc 1 71 0
  47 0016 054A     		ldr	r2, .L3+4
  48 0018 D37B     		ldrb	r3, [r2, #15]	@ zero_extendqisi2
  49 001a 83F08003 		eor	r3, r3, #128
  50 001e D373     		strb	r3, [r2, #15]
  51              	.L2:
  72:Generated_Source\PSoC5/USBFS_episr.c ****             }
  73:Generated_Source\PSoC5/USBFS_episr.c **** 
  74:Generated_Source\PSoC5/USBFS_episr.c ****             /* EP_MANAGEMENT_DMA_AUTO (Ticket ID# 214187): For OUT endpoint this event is used to n
  75:Generated_Source\PSoC5/USBFS_episr.c ****             * user that DMA has completed copying data from OUT endpoint which is not completely tr
  76:Generated_Source\PSoC5/USBFS_episr.c ****             * Because last chunk of data is being copied.
  77:Generated_Source\PSoC5/USBFS_episr.c ****             * For CY_PSOC 3/5LP: it is acceptable as DMA is really fast.
  78:Generated_Source\PSoC5/USBFS_episr.c ****             * For CY_PSOC4: this event is set in Arbiter interrupt (source is DMA_TERMIN).
  79:Generated_Source\PSoC5/USBFS_episr.c ****             */
  80:Generated_Source\PSoC5/USBFS_episr.c ****             USBFS_EP[USBFS_EP1].apiEpState = USBFS_EVENT_PENDING;
  52              		.loc 1 80 0
  53 0020 0122     		movs	r2, #1
  54 0022 024B     		ldr	r3, .L3+4
  55 0024 5A73     		strb	r2, [r3, #13]
  56 0026 7047     		bx	lr
  57              	.L4:
  58              		.align	2
  59              	.L3:
  60 0028 0B600040 		.word	1073766411
  61 002c 00000000 		.word	USBFS_EP
  62              		.cfi_endproc
  63              	.LFE0:
  64              		.size	USBFS_EP_1_ISR, .-USBFS_EP_1_ISR
  65              		.section	.text.USBFS_EP_2_ISR,"ax",%progbits
  66              		.align	2
  67              		.global	USBFS_EP_2_ISR
  68              		.thumb
  69              		.thumb_func
  70              		.type	USBFS_EP_2_ISR, %function
  71              	USBFS_EP_2_ISR:
  72              	.LFB1:
  81:Generated_Source\PSoC5/USBFS_episr.c ****         }
  82:Generated_Source\PSoC5/USBFS_episr.c **** 
  83:Generated_Source\PSoC5/USBFS_episr.c ****     #if (!(CY_PSOC4 && USBFS_EP_MANAGEMENT_DMA_AUTO))
  84:Generated_Source\PSoC5/USBFS_episr.c ****         #if (defined(USBFS_ENABLE_MIDI_STREAMING) && \
  85:Generated_Source\PSoC5/USBFS_episr.c ****             !defined(USBFS_MAIN_SERVICE_MIDI_OUT) && USBFS_ISR_SERVICE_MIDI_OUT)
  86:Generated_Source\PSoC5/USBFS_episr.c ****             if (USBFS_midi_out_ep == USBFS_EP1)
  87:Generated_Source\PSoC5/USBFS_episr.c ****             {
  88:Generated_Source\PSoC5/USBFS_episr.c ****                 USBFS_MIDI_OUT_Service();
  89:Generated_Source\PSoC5/USBFS_episr.c ****             }
  90:Generated_Source\PSoC5/USBFS_episr.c ****         #endif /* (USBFS_ISR_SERVICE_MIDI_OUT) */
  91:Generated_Source\PSoC5/USBFS_episr.c ****     #endif /* (!(CY_PSOC4 && USBFS_EP_MANAGEMENT_DMA_AUTO)) */
  92:Generated_Source\PSoC5/USBFS_episr.c ****     
  93:Generated_Source\PSoC5/USBFS_episr.c ****         /* `#START EP1_END_USER_CODE` Place your code here */
  94:Generated_Source\PSoC5/USBFS_episr.c **** 
  95:Generated_Source\PSoC5/USBFS_episr.c ****         /* `#END` */
  96:Generated_Source\PSoC5/USBFS_episr.c **** 
  97:Generated_Source\PSoC5/USBFS_episr.c ****     #ifdef USBFS_EP_1_ISR_EXIT_CALLBACK
  98:Generated_Source\PSoC5/USBFS_episr.c ****         USBFS_EP_1_ISR_ExitCallback();
  99:Generated_Source\PSoC5/USBFS_episr.c ****     #endif /* (USBFS_EP_1_ISR_EXIT_CALLBACK) */
ARM GAS  C:\Users\Admin\AppData\Local\Temp\ccLuJTHH.s 			page 4


 100:Generated_Source\PSoC5/USBFS_episr.c **** 
 101:Generated_Source\PSoC5/USBFS_episr.c ****     #if (CY_PSOC3 && defined(USBFS_ENABLE_MIDI_STREAMING) && \
 102:Generated_Source\PSoC5/USBFS_episr.c ****         !defined(USBFS_MAIN_SERVICE_MIDI_OUT) && USBFS_ISR_SERVICE_MIDI_OUT)
 103:Generated_Source\PSoC5/USBFS_episr.c ****         
 104:Generated_Source\PSoC5/USBFS_episr.c ****             EA = intEn; /* Restore nested interrupt configuration. */
 105:Generated_Source\PSoC5/USBFS_episr.c ****         }
 106:Generated_Source\PSoC5/USBFS_episr.c ****     #endif /* (CY_PSOC3 && USBFS_ISR_SERVICE_MIDI_OUT) */
 107:Generated_Source\PSoC5/USBFS_episr.c ****     }
 108:Generated_Source\PSoC5/USBFS_episr.c **** 
 109:Generated_Source\PSoC5/USBFS_episr.c **** #endif /* (USBFS_EP1_ISR_ACTIVE) */
 110:Generated_Source\PSoC5/USBFS_episr.c **** 
 111:Generated_Source\PSoC5/USBFS_episr.c **** 
 112:Generated_Source\PSoC5/USBFS_episr.c **** #if (USBFS_EP2_ISR_ACTIVE)
 113:Generated_Source\PSoC5/USBFS_episr.c ****     /*******************************************************************************
 114:Generated_Source\PSoC5/USBFS_episr.c ****     * Function Name: USBFS_EP_2_ISR
 115:Generated_Source\PSoC5/USBFS_episr.c ****     ****************************************************************************//**
 116:Generated_Source\PSoC5/USBFS_episr.c ****     *
 117:Generated_Source\PSoC5/USBFS_episr.c ****     *  Endpoint 2 Interrupt Service Routine.
 118:Generated_Source\PSoC5/USBFS_episr.c ****     *
 119:Generated_Source\PSoC5/USBFS_episr.c ****     *******************************************************************************/
 120:Generated_Source\PSoC5/USBFS_episr.c ****     CY_ISR(USBFS_EP_2_ISR)
 121:Generated_Source\PSoC5/USBFS_episr.c ****     {
  73              		.loc 1 121 0
  74              		.cfi_startproc
  75              		@ args = 0, pretend = 0, frame = 0
  76              		@ frame_needed = 0, uses_anonymous_args = 0
  77              		@ link register save eliminated.
 122:Generated_Source\PSoC5/USBFS_episr.c ****     #ifdef USBFS_EP_2_ISR_ENTRY_CALLBACK
 123:Generated_Source\PSoC5/USBFS_episr.c ****         USBFS_EP_2_ISR_EntryCallback();
 124:Generated_Source\PSoC5/USBFS_episr.c ****     #endif /* (USBFS_EP_2_ISR_ENTRY_CALLBACK) */
 125:Generated_Source\PSoC5/USBFS_episr.c **** 
 126:Generated_Source\PSoC5/USBFS_episr.c ****         /* `#START EP2_USER_CODE` Place your code here */
 127:Generated_Source\PSoC5/USBFS_episr.c **** 
 128:Generated_Source\PSoC5/USBFS_episr.c ****         /* `#END` */
 129:Generated_Source\PSoC5/USBFS_episr.c **** 
 130:Generated_Source\PSoC5/USBFS_episr.c ****     #if (CY_PSOC3 && defined(USBFS_ENABLE_MIDI_STREAMING) && \
 131:Generated_Source\PSoC5/USBFS_episr.c ****         !defined(USBFS_MAIN_SERVICE_MIDI_OUT) && USBFS_ISR_SERVICE_MIDI_OUT)
 132:Generated_Source\PSoC5/USBFS_episr.c ****         {
 133:Generated_Source\PSoC5/USBFS_episr.c ****             uint8 intEn = EA;
 134:Generated_Source\PSoC5/USBFS_episr.c ****             CyGlobalIntEnable;  /* Enable nested interrupts. */
 135:Generated_Source\PSoC5/USBFS_episr.c ****     #endif /* (CY_PSOC3 && USBFS_ISR_SERVICE_MIDI_OUT) */
 136:Generated_Source\PSoC5/USBFS_episr.c **** 
 137:Generated_Source\PSoC5/USBFS_episr.c ****         USBFS_ClearSieEpInterruptSource(USBFS_SIE_INT_EP2_INTR);
  78              		.loc 1 137 0
  79 0000 0222     		movs	r2, #2
  80 0002 0A4B     		ldr	r3, .L7
  81 0004 1A70     		strb	r2, [r3]
 138:Generated_Source\PSoC5/USBFS_episr.c **** 
 139:Generated_Source\PSoC5/USBFS_episr.c ****         /* Notifies user that transfer IN or OUT transfer is completed.
 140:Generated_Source\PSoC5/USBFS_episr.c ****         * IN endpoint: endpoint buffer can be reloaded, Host is read data.
 141:Generated_Source\PSoC5/USBFS_episr.c ****         * OUT endpoint: data is ready to be read from endpoint buffer. 
 142:Generated_Source\PSoC5/USBFS_episr.c ****         */
 143:Generated_Source\PSoC5/USBFS_episr.c ****     #if (CY_PSOC4 && USBFS_EP_MANAGEMENT_DMA_AUTO)
 144:Generated_Source\PSoC5/USBFS_episr.c ****         if (0u != (USBFS_EP[USBFS_EP2].addr & USBFS_DIR_IN))
 145:Generated_Source\PSoC5/USBFS_episr.c ****     #endif /* (CY_PSOC4 && USBFS_EP_MANAGEMENT_DMA_AUTO) */
 146:Generated_Source\PSoC5/USBFS_episr.c ****         {            
 147:Generated_Source\PSoC5/USBFS_episr.c ****             /* Read CR0 register to clear SIE lock. */
ARM GAS  C:\Users\Admin\AppData\Local\Temp\ccLuJTHH.s 			page 5


 148:Generated_Source\PSoC5/USBFS_episr.c ****             (void) USBFS_SIE_EP_BASE.sieEp[USBFS_EP2].epCr0;
  82              		.loc 1 148 0
  83 0006 0F3B     		subs	r3, r3, #15
  84 0008 93F82230 		ldrb	r3, [r3, #34]	@ zero_extendqisi2
 149:Generated_Source\PSoC5/USBFS_episr.c ****             
 150:Generated_Source\PSoC5/USBFS_episr.c ****             /* Toggle all endpoint types except ISOC. */
 151:Generated_Source\PSoC5/USBFS_episr.c ****             if (USBFS_GET_EP_TYPE(USBFS_EP2) != USBFS_EP_TYPE_ISOC)
  85              		.loc 1 151 0
  86 000c 084B     		ldr	r3, .L7+4
  87 000e 1B7E     		ldrb	r3, [r3, #24]	@ zero_extendqisi2
  88 0010 03F00303 		and	r3, r3, #3
  89 0014 012B     		cmp	r3, #1
  90 0016 04D0     		beq	.L6
 152:Generated_Source\PSoC5/USBFS_episr.c ****             {
 153:Generated_Source\PSoC5/USBFS_episr.c ****                 USBFS_EP[USBFS_EP2].epToggle ^= USBFS_EPX_CNT_DATA_TOGGLE;
  91              		.loc 1 153 0
  92 0018 054A     		ldr	r2, .L7+4
  93 001a D37E     		ldrb	r3, [r2, #27]	@ zero_extendqisi2
  94 001c 83F08003 		eor	r3, r3, #128
  95 0020 D376     		strb	r3, [r2, #27]
  96              	.L6:
 154:Generated_Source\PSoC5/USBFS_episr.c ****             }
 155:Generated_Source\PSoC5/USBFS_episr.c **** 
 156:Generated_Source\PSoC5/USBFS_episr.c ****             /* EP_MANAGEMENT_DMA_AUTO (Ticket ID# 214187): For OUT endpoint this event is used to n
 157:Generated_Source\PSoC5/USBFS_episr.c ****             * user that DMA has completed copying data from OUT endpoint which is not completely tr
 158:Generated_Source\PSoC5/USBFS_episr.c ****             * Because last chunk of data is being copied.
 159:Generated_Source\PSoC5/USBFS_episr.c ****             * For CY_PSOC 3/5LP: it is acceptable as DMA is really fast.
 160:Generated_Source\PSoC5/USBFS_episr.c ****             * For CY_PSOC4: this event is set in Arbiter interrupt (source is DMA_TERMIN).
 161:Generated_Source\PSoC5/USBFS_episr.c ****             */
 162:Generated_Source\PSoC5/USBFS_episr.c ****             USBFS_EP[USBFS_EP2].apiEpState = USBFS_EVENT_PENDING;
  97              		.loc 1 162 0
  98 0022 0122     		movs	r2, #1
  99 0024 024B     		ldr	r3, .L7+4
 100 0026 5A76     		strb	r2, [r3, #25]
 101 0028 7047     		bx	lr
 102              	.L8:
 103 002a 00BF     		.align	2
 104              	.L7:
 105 002c 0B600040 		.word	1073766411
 106 0030 00000000 		.word	USBFS_EP
 107              		.cfi_endproc
 108              	.LFE1:
 109              		.size	USBFS_EP_2_ISR, .-USBFS_EP_2_ISR
 110              		.section	.text.USBFS_EP_3_ISR,"ax",%progbits
 111              		.align	2
 112              		.global	USBFS_EP_3_ISR
 113              		.thumb
 114              		.thumb_func
 115              		.type	USBFS_EP_3_ISR, %function
 116              	USBFS_EP_3_ISR:
 117              	.LFB2:
 163:Generated_Source\PSoC5/USBFS_episr.c ****         }
 164:Generated_Source\PSoC5/USBFS_episr.c **** 
 165:Generated_Source\PSoC5/USBFS_episr.c ****     #if (!(CY_PSOC4 && USBFS_EP_MANAGEMENT_DMA_AUTO))
 166:Generated_Source\PSoC5/USBFS_episr.c ****         #if (defined(USBFS_ENABLE_MIDI_STREAMING) && \
 167:Generated_Source\PSoC5/USBFS_episr.c ****             !defined(USBFS_MAIN_SERVICE_MIDI_OUT) && USBFS_ISR_SERVICE_MIDI_OUT)
 168:Generated_Source\PSoC5/USBFS_episr.c ****             if (USBFS_midi_out_ep == USBFS_EP2)
ARM GAS  C:\Users\Admin\AppData\Local\Temp\ccLuJTHH.s 			page 6


 169:Generated_Source\PSoC5/USBFS_episr.c ****             {
 170:Generated_Source\PSoC5/USBFS_episr.c ****                 USBFS_MIDI_OUT_Service();
 171:Generated_Source\PSoC5/USBFS_episr.c ****             }
 172:Generated_Source\PSoC5/USBFS_episr.c ****         #endif /* (USBFS_ISR_SERVICE_MIDI_OUT) */
 173:Generated_Source\PSoC5/USBFS_episr.c ****     #endif /* (!(CY_PSOC4 && USBFS_EP_MANAGEMENT_DMA_AUTO)) */        
 174:Generated_Source\PSoC5/USBFS_episr.c ****     
 175:Generated_Source\PSoC5/USBFS_episr.c ****         /* `#START EP2_END_USER_CODE` Place your code here */
 176:Generated_Source\PSoC5/USBFS_episr.c **** 
 177:Generated_Source\PSoC5/USBFS_episr.c ****         /* `#END` */
 178:Generated_Source\PSoC5/USBFS_episr.c **** 
 179:Generated_Source\PSoC5/USBFS_episr.c ****     #ifdef USBFS_EP_2_ISR_EXIT_CALLBACK
 180:Generated_Source\PSoC5/USBFS_episr.c ****         USBFS_EP_2_ISR_ExitCallback();
 181:Generated_Source\PSoC5/USBFS_episr.c ****     #endif /* (USBFS_EP_2_ISR_EXIT_CALLBACK) */
 182:Generated_Source\PSoC5/USBFS_episr.c **** 
 183:Generated_Source\PSoC5/USBFS_episr.c ****     #if (CY_PSOC3 && defined(USBFS_ENABLE_MIDI_STREAMING) && \
 184:Generated_Source\PSoC5/USBFS_episr.c ****         !defined(USBFS_MAIN_SERVICE_MIDI_OUT) && USBFS_ISR_SERVICE_MIDI_OUT)
 185:Generated_Source\PSoC5/USBFS_episr.c ****         
 186:Generated_Source\PSoC5/USBFS_episr.c ****             EA = intEn; /* Restore nested interrupt configuration. */
 187:Generated_Source\PSoC5/USBFS_episr.c ****         }
 188:Generated_Source\PSoC5/USBFS_episr.c ****     #endif /* (CY_PSOC3 && USBFS_ISR_SERVICE_MIDI_OUT) */
 189:Generated_Source\PSoC5/USBFS_episr.c ****     }
 190:Generated_Source\PSoC5/USBFS_episr.c **** #endif /* (USBFS_EP2_ISR_ACTIVE) */
 191:Generated_Source\PSoC5/USBFS_episr.c **** 
 192:Generated_Source\PSoC5/USBFS_episr.c **** 
 193:Generated_Source\PSoC5/USBFS_episr.c **** #if (USBFS_EP3_ISR_ACTIVE)
 194:Generated_Source\PSoC5/USBFS_episr.c ****     /*******************************************************************************
 195:Generated_Source\PSoC5/USBFS_episr.c ****     * Function Name: USBFS_EP_3_ISR
 196:Generated_Source\PSoC5/USBFS_episr.c ****     ****************************************************************************//**
 197:Generated_Source\PSoC5/USBFS_episr.c ****     *
 198:Generated_Source\PSoC5/USBFS_episr.c ****     *  Endpoint 3 Interrupt Service Routine.
 199:Generated_Source\PSoC5/USBFS_episr.c ****     *
 200:Generated_Source\PSoC5/USBFS_episr.c ****     *******************************************************************************/
 201:Generated_Source\PSoC5/USBFS_episr.c ****     CY_ISR(USBFS_EP_3_ISR)
 202:Generated_Source\PSoC5/USBFS_episr.c ****     {
 118              		.loc 1 202 0
 119              		.cfi_startproc
 120              		@ args = 0, pretend = 0, frame = 0
 121              		@ frame_needed = 0, uses_anonymous_args = 0
 122              		@ link register save eliminated.
 203:Generated_Source\PSoC5/USBFS_episr.c ****     #ifdef USBFS_EP_3_ISR_ENTRY_CALLBACK
 204:Generated_Source\PSoC5/USBFS_episr.c ****         USBFS_EP_3_ISR_EntryCallback();
 205:Generated_Source\PSoC5/USBFS_episr.c ****     #endif /* (USBFS_EP_3_ISR_ENTRY_CALLBACK) */
 206:Generated_Source\PSoC5/USBFS_episr.c **** 
 207:Generated_Source\PSoC5/USBFS_episr.c ****         /* `#START EP3_USER_CODE` Place your code here */
 208:Generated_Source\PSoC5/USBFS_episr.c **** 
 209:Generated_Source\PSoC5/USBFS_episr.c ****         /* `#END` */
 210:Generated_Source\PSoC5/USBFS_episr.c **** 
 211:Generated_Source\PSoC5/USBFS_episr.c ****     #if (CY_PSOC3 && defined(USBFS_ENABLE_MIDI_STREAMING) && \
 212:Generated_Source\PSoC5/USBFS_episr.c ****         !defined(USBFS_MAIN_SERVICE_MIDI_OUT) && USBFS_ISR_SERVICE_MIDI_OUT)
 213:Generated_Source\PSoC5/USBFS_episr.c ****         {
 214:Generated_Source\PSoC5/USBFS_episr.c ****             uint8 intEn = EA;
 215:Generated_Source\PSoC5/USBFS_episr.c ****             CyGlobalIntEnable;  /* Enable nested interrupts. */
 216:Generated_Source\PSoC5/USBFS_episr.c ****     #endif /* (CY_PSOC3 && USBFS_ISR_SERVICE_MIDI_OUT) */
 217:Generated_Source\PSoC5/USBFS_episr.c **** 
 218:Generated_Source\PSoC5/USBFS_episr.c ****         USBFS_ClearSieEpInterruptSource(USBFS_SIE_INT_EP3_INTR);    
 123              		.loc 1 218 0
 124 0000 0422     		movs	r2, #4
ARM GAS  C:\Users\Admin\AppData\Local\Temp\ccLuJTHH.s 			page 7


 125 0002 0C4B     		ldr	r3, .L11
 126 0004 1A70     		strb	r2, [r3]
 219:Generated_Source\PSoC5/USBFS_episr.c **** 
 220:Generated_Source\PSoC5/USBFS_episr.c ****         /* Notifies user that transfer IN or OUT transfer is completed.
 221:Generated_Source\PSoC5/USBFS_episr.c ****         * IN endpoint: endpoint buffer can be reloaded, Host is read data.
 222:Generated_Source\PSoC5/USBFS_episr.c ****         * OUT endpoint: data is ready to be read from endpoint buffer. 
 223:Generated_Source\PSoC5/USBFS_episr.c ****         */
 224:Generated_Source\PSoC5/USBFS_episr.c ****     #if (CY_PSOC4 && USBFS_EP_MANAGEMENT_DMA_AUTO)
 225:Generated_Source\PSoC5/USBFS_episr.c ****         if (0u != (USBFS_EP[USBFS_EP3].addr & USBFS_DIR_IN))
 226:Generated_Source\PSoC5/USBFS_episr.c ****     #endif /* (USBFS_EP_MANAGEMENT_DMA_AUTO) */
 227:Generated_Source\PSoC5/USBFS_episr.c ****         {            
 228:Generated_Source\PSoC5/USBFS_episr.c ****             /* Read CR0 register to clear SIE lock. */
 229:Generated_Source\PSoC5/USBFS_episr.c ****             (void) USBFS_SIE_EP_BASE.sieEp[USBFS_EP3].epCr0;
 127              		.loc 1 229 0
 128 0006 0F3B     		subs	r3, r3, #15
 129 0008 93F83230 		ldrb	r3, [r3, #50]	@ zero_extendqisi2
 230:Generated_Source\PSoC5/USBFS_episr.c **** 
 231:Generated_Source\PSoC5/USBFS_episr.c ****             /* Toggle all endpoint types except ISOC. */
 232:Generated_Source\PSoC5/USBFS_episr.c ****             if (USBFS_GET_EP_TYPE(USBFS_EP3) != USBFS_EP_TYPE_ISOC)
 130              		.loc 1 232 0
 131 000c 0A4B     		ldr	r3, .L11+4
 132 000e 93F82430 		ldrb	r3, [r3, #36]	@ zero_extendqisi2
 133 0012 03F00303 		and	r3, r3, #3
 134 0016 012B     		cmp	r3, #1
 135 0018 06D0     		beq	.L10
 233:Generated_Source\PSoC5/USBFS_episr.c ****             {
 234:Generated_Source\PSoC5/USBFS_episr.c ****                 USBFS_EP[USBFS_EP3].epToggle ^= USBFS_EPX_CNT_DATA_TOGGLE;
 136              		.loc 1 234 0
 137 001a 074A     		ldr	r2, .L11+4
 138 001c 92F82730 		ldrb	r3, [r2, #39]	@ zero_extendqisi2
 139 0020 83F08003 		eor	r3, r3, #128
 140 0024 82F82730 		strb	r3, [r2, #39]
 141              	.L10:
 235:Generated_Source\PSoC5/USBFS_episr.c ****             }
 236:Generated_Source\PSoC5/USBFS_episr.c **** 
 237:Generated_Source\PSoC5/USBFS_episr.c ****             /* EP_MANAGEMENT_DMA_AUTO (Ticket ID# 214187): For OUT endpoint this event is used to n
 238:Generated_Source\PSoC5/USBFS_episr.c ****             * user that DMA has completed copying data from OUT endpoint which is not completely tr
 239:Generated_Source\PSoC5/USBFS_episr.c ****             * Because last chunk of data is being copied.
 240:Generated_Source\PSoC5/USBFS_episr.c ****             * For CY_PSOC 3/5LP: it is acceptable as DMA is really fast.
 241:Generated_Source\PSoC5/USBFS_episr.c ****             * For CY_PSOC4: this event is set in Arbiter interrupt (source is DMA_TERMIN).
 242:Generated_Source\PSoC5/USBFS_episr.c ****             */
 243:Generated_Source\PSoC5/USBFS_episr.c ****             USBFS_EP[USBFS_EP3].apiEpState = USBFS_EVENT_PENDING;
 142              		.loc 1 243 0
 143 0028 0122     		movs	r2, #1
 144 002a 034B     		ldr	r3, .L11+4
 145 002c 83F82520 		strb	r2, [r3, #37]
 146 0030 7047     		bx	lr
 147              	.L12:
 148 0032 00BF     		.align	2
 149              	.L11:
 150 0034 0B600040 		.word	1073766411
 151 0038 00000000 		.word	USBFS_EP
 152              		.cfi_endproc
 153              	.LFE2:
 154              		.size	USBFS_EP_3_ISR, .-USBFS_EP_3_ISR
 155              		.section	.text.USBFS_EP_4_ISR,"ax",%progbits
 156              		.align	2
ARM GAS  C:\Users\Admin\AppData\Local\Temp\ccLuJTHH.s 			page 8


 157              		.global	USBFS_EP_4_ISR
 158              		.thumb
 159              		.thumb_func
 160              		.type	USBFS_EP_4_ISR, %function
 161              	USBFS_EP_4_ISR:
 162              	.LFB3:
 244:Generated_Source\PSoC5/USBFS_episr.c ****         }
 245:Generated_Source\PSoC5/USBFS_episr.c **** 
 246:Generated_Source\PSoC5/USBFS_episr.c ****     #if (!(CY_PSOC4 && USBFS_EP_MANAGEMENT_DMA_AUTO))
 247:Generated_Source\PSoC5/USBFS_episr.c ****         #if (defined(USBFS_ENABLE_MIDI_STREAMING) && \
 248:Generated_Source\PSoC5/USBFS_episr.c ****             !defined(USBFS_MAIN_SERVICE_MIDI_OUT) && USBFS_ISR_SERVICE_MIDI_OUT)
 249:Generated_Source\PSoC5/USBFS_episr.c ****             if (USBFS_midi_out_ep == USBFS_EP3)
 250:Generated_Source\PSoC5/USBFS_episr.c ****             {
 251:Generated_Source\PSoC5/USBFS_episr.c ****                 USBFS_MIDI_OUT_Service();
 252:Generated_Source\PSoC5/USBFS_episr.c ****             }
 253:Generated_Source\PSoC5/USBFS_episr.c ****         #endif /* (USBFS_ISR_SERVICE_MIDI_OUT) */
 254:Generated_Source\PSoC5/USBFS_episr.c ****     #endif /* (!(CY_PSOC4 && USBFS_EP_MANAGEMENT_DMA_AUTO)) */        
 255:Generated_Source\PSoC5/USBFS_episr.c **** 
 256:Generated_Source\PSoC5/USBFS_episr.c ****         /* `#START EP3_END_USER_CODE` Place your code here */
 257:Generated_Source\PSoC5/USBFS_episr.c **** 
 258:Generated_Source\PSoC5/USBFS_episr.c ****         /* `#END` */
 259:Generated_Source\PSoC5/USBFS_episr.c **** 
 260:Generated_Source\PSoC5/USBFS_episr.c ****     #ifdef USBFS_EP_3_ISR_EXIT_CALLBACK
 261:Generated_Source\PSoC5/USBFS_episr.c ****         USBFS_EP_3_ISR_ExitCallback();
 262:Generated_Source\PSoC5/USBFS_episr.c ****     #endif /* (USBFS_EP_3_ISR_EXIT_CALLBACK) */
 263:Generated_Source\PSoC5/USBFS_episr.c **** 
 264:Generated_Source\PSoC5/USBFS_episr.c ****     #if (CY_PSOC3 && defined(USBFS_ENABLE_MIDI_STREAMING) && \
 265:Generated_Source\PSoC5/USBFS_episr.c ****         !defined(USBFS_MAIN_SERVICE_MIDI_OUT) && USBFS_ISR_SERVICE_MIDI_OUT)
 266:Generated_Source\PSoC5/USBFS_episr.c ****         
 267:Generated_Source\PSoC5/USBFS_episr.c ****             EA = intEn; /* Restore nested interrupt configuration. */
 268:Generated_Source\PSoC5/USBFS_episr.c ****         }
 269:Generated_Source\PSoC5/USBFS_episr.c ****     #endif /* (CY_PSOC3 && USBFS_ISR_SERVICE_MIDI_OUT) */
 270:Generated_Source\PSoC5/USBFS_episr.c ****     }
 271:Generated_Source\PSoC5/USBFS_episr.c **** #endif /* (USBFS_EP3_ISR_ACTIVE) */
 272:Generated_Source\PSoC5/USBFS_episr.c **** 
 273:Generated_Source\PSoC5/USBFS_episr.c **** 
 274:Generated_Source\PSoC5/USBFS_episr.c **** #if (USBFS_EP4_ISR_ACTIVE)
 275:Generated_Source\PSoC5/USBFS_episr.c ****     /*******************************************************************************
 276:Generated_Source\PSoC5/USBFS_episr.c ****     * Function Name: USBFS_EP_4_ISR
 277:Generated_Source\PSoC5/USBFS_episr.c ****     ****************************************************************************//**
 278:Generated_Source\PSoC5/USBFS_episr.c ****     *
 279:Generated_Source\PSoC5/USBFS_episr.c ****     *  Endpoint 4 Interrupt Service Routine.
 280:Generated_Source\PSoC5/USBFS_episr.c ****     *
 281:Generated_Source\PSoC5/USBFS_episr.c ****     *******************************************************************************/
 282:Generated_Source\PSoC5/USBFS_episr.c ****     CY_ISR(USBFS_EP_4_ISR)
 283:Generated_Source\PSoC5/USBFS_episr.c ****     {
 163              		.loc 1 283 0
 164              		.cfi_startproc
 165              		@ args = 0, pretend = 0, frame = 0
 166              		@ frame_needed = 0, uses_anonymous_args = 0
 167              		@ link register save eliminated.
 284:Generated_Source\PSoC5/USBFS_episr.c ****     #ifdef USBFS_EP_4_ISR_ENTRY_CALLBACK
 285:Generated_Source\PSoC5/USBFS_episr.c ****         USBFS_EP_4_ISR_EntryCallback();
 286:Generated_Source\PSoC5/USBFS_episr.c ****     #endif /* (USBFS_EP_4_ISR_ENTRY_CALLBACK) */
 287:Generated_Source\PSoC5/USBFS_episr.c **** 
 288:Generated_Source\PSoC5/USBFS_episr.c ****         /* `#START EP4_USER_CODE` Place your code here */
 289:Generated_Source\PSoC5/USBFS_episr.c **** 
ARM GAS  C:\Users\Admin\AppData\Local\Temp\ccLuJTHH.s 			page 9


 290:Generated_Source\PSoC5/USBFS_episr.c ****         /* `#END` */
 291:Generated_Source\PSoC5/USBFS_episr.c **** 
 292:Generated_Source\PSoC5/USBFS_episr.c ****     #if (CY_PSOC3 && defined(USBFS_ENABLE_MIDI_STREAMING) && \
 293:Generated_Source\PSoC5/USBFS_episr.c ****         !defined(USBFS_MAIN_SERVICE_MIDI_OUT) && USBFS_ISR_SERVICE_MIDI_OUT)
 294:Generated_Source\PSoC5/USBFS_episr.c ****         {
 295:Generated_Source\PSoC5/USBFS_episr.c ****             uint8 intEn = EA;
 296:Generated_Source\PSoC5/USBFS_episr.c ****             CyGlobalIntEnable;  /* Enable nested interrupts. */
 297:Generated_Source\PSoC5/USBFS_episr.c ****     #endif /* (CY_PSOC3 && USBFS_ISR_SERVICE_MIDI_OUT) */
 298:Generated_Source\PSoC5/USBFS_episr.c **** 
 299:Generated_Source\PSoC5/USBFS_episr.c ****         USBFS_ClearSieEpInterruptSource(USBFS_SIE_INT_EP4_INTR);
 168              		.loc 1 299 0
 169 0000 0822     		movs	r2, #8
 170 0002 0C4B     		ldr	r3, .L15
 171 0004 1A70     		strb	r2, [r3]
 300:Generated_Source\PSoC5/USBFS_episr.c ****         
 301:Generated_Source\PSoC5/USBFS_episr.c ****         /* Notifies user that transfer IN or OUT transfer is completed.
 302:Generated_Source\PSoC5/USBFS_episr.c ****         * IN endpoint: endpoint buffer can be reloaded, Host is read data.
 303:Generated_Source\PSoC5/USBFS_episr.c ****         * OUT endpoint: data is ready to read from endpoint buffer. 
 304:Generated_Source\PSoC5/USBFS_episr.c ****         */
 305:Generated_Source\PSoC5/USBFS_episr.c ****     #if (CY_PSOC4 && USBFS_EP_MANAGEMENT_DMA_AUTO)
 306:Generated_Source\PSoC5/USBFS_episr.c ****         if (0u != (USBFS_EP[USBFS_EP4].addr & USBFS_DIR_IN))
 307:Generated_Source\PSoC5/USBFS_episr.c ****     #endif /* (USBFS_EP_MANAGEMENT_DMA_AUTO) */
 308:Generated_Source\PSoC5/USBFS_episr.c ****         {
 309:Generated_Source\PSoC5/USBFS_episr.c ****             /* Read CR0 register to clear SIE lock. */
 310:Generated_Source\PSoC5/USBFS_episr.c ****             (void) USBFS_SIE_EP_BASE.sieEp[USBFS_EP4].epCr0;
 172              		.loc 1 310 0
 173 0006 0F3B     		subs	r3, r3, #15
 174 0008 93F84230 		ldrb	r3, [r3, #66]	@ zero_extendqisi2
 311:Generated_Source\PSoC5/USBFS_episr.c **** 
 312:Generated_Source\PSoC5/USBFS_episr.c ****             /* Toggle all endpoint types except ISOC. */
 313:Generated_Source\PSoC5/USBFS_episr.c ****             if (USBFS_GET_EP_TYPE(USBFS_EP4) != USBFS_EP_TYPE_ISOC)
 175              		.loc 1 313 0
 176 000c 0A4B     		ldr	r3, .L15+4
 177 000e 93F83030 		ldrb	r3, [r3, #48]	@ zero_extendqisi2
 178 0012 03F00303 		and	r3, r3, #3
 179 0016 012B     		cmp	r3, #1
 180 0018 06D0     		beq	.L14
 314:Generated_Source\PSoC5/USBFS_episr.c ****             {
 315:Generated_Source\PSoC5/USBFS_episr.c ****                 USBFS_EP[USBFS_EP4].epToggle ^= USBFS_EPX_CNT_DATA_TOGGLE;
 181              		.loc 1 315 0
 182 001a 074A     		ldr	r2, .L15+4
 183 001c 92F83330 		ldrb	r3, [r2, #51]	@ zero_extendqisi2
 184 0020 83F08003 		eor	r3, r3, #128
 185 0024 82F83330 		strb	r3, [r2, #51]
 186              	.L14:
 316:Generated_Source\PSoC5/USBFS_episr.c ****             }
 317:Generated_Source\PSoC5/USBFS_episr.c **** 
 318:Generated_Source\PSoC5/USBFS_episr.c ****             /* EP_MANAGEMENT_DMA_AUTO (Ticket ID# 214187): For OUT endpoint this event is used to n
 319:Generated_Source\PSoC5/USBFS_episr.c ****             * user that DMA has completed copying data from OUT endpoint which is not completely tr
 320:Generated_Source\PSoC5/USBFS_episr.c ****             * Because last chunk of data is being copied.
 321:Generated_Source\PSoC5/USBFS_episr.c ****             * For CY_PSOC 3/5LP: it is acceptable as DMA is really fast.
 322:Generated_Source\PSoC5/USBFS_episr.c ****             * For CY_PSOC4: this event is set in Arbiter interrupt (source is DMA_TERMIN).
 323:Generated_Source\PSoC5/USBFS_episr.c ****             */
 324:Generated_Source\PSoC5/USBFS_episr.c ****             USBFS_EP[USBFS_EP4].apiEpState = USBFS_EVENT_PENDING;
 187              		.loc 1 324 0
 188 0028 0122     		movs	r2, #1
 189 002a 034B     		ldr	r3, .L15+4
ARM GAS  C:\Users\Admin\AppData\Local\Temp\ccLuJTHH.s 			page 10


 190 002c 83F83120 		strb	r2, [r3, #49]
 191 0030 7047     		bx	lr
 192              	.L16:
 193 0032 00BF     		.align	2
 194              	.L15:
 195 0034 0B600040 		.word	1073766411
 196 0038 00000000 		.word	USBFS_EP
 197              		.cfi_endproc
 198              	.LFE3:
 199              		.size	USBFS_EP_4_ISR, .-USBFS_EP_4_ISR
 200              		.section	.text.USBFS_BUS_RESET_ISR,"ax",%progbits
 201              		.align	2
 202              		.global	USBFS_BUS_RESET_ISR
 203              		.thumb
 204              		.thumb_func
 205              		.type	USBFS_BUS_RESET_ISR, %function
 206              	USBFS_BUS_RESET_ISR:
 207              	.LFB4:
 325:Generated_Source\PSoC5/USBFS_episr.c ****         }
 326:Generated_Source\PSoC5/USBFS_episr.c **** 
 327:Generated_Source\PSoC5/USBFS_episr.c ****     #if (!(CY_PSOC4 && USBFS_EP_MANAGEMENT_DMA_AUTO))
 328:Generated_Source\PSoC5/USBFS_episr.c ****         #if (defined(USBFS_ENABLE_MIDI_STREAMING) && \
 329:Generated_Source\PSoC5/USBFS_episr.c ****             !defined(USBFS_MAIN_SERVICE_MIDI_OUT) && USBFS_ISR_SERVICE_MIDI_OUT)
 330:Generated_Source\PSoC5/USBFS_episr.c ****             if(USBFS_midi_out_ep == USBFS_EP4)
 331:Generated_Source\PSoC5/USBFS_episr.c ****             {
 332:Generated_Source\PSoC5/USBFS_episr.c ****                 USBFS_MIDI_OUT_Service();
 333:Generated_Source\PSoC5/USBFS_episr.c ****             }
 334:Generated_Source\PSoC5/USBFS_episr.c ****         #endif /* (USBFS_ISR_SERVICE_MIDI_OUT) */
 335:Generated_Source\PSoC5/USBFS_episr.c ****     #endif /* (!(CY_PSOC4 && USBFS_EP_MANAGEMENT_DMA_AUTO)) */        
 336:Generated_Source\PSoC5/USBFS_episr.c **** 
 337:Generated_Source\PSoC5/USBFS_episr.c ****         /* `#START EP4_END_USER_CODE` Place your code here */
 338:Generated_Source\PSoC5/USBFS_episr.c **** 
 339:Generated_Source\PSoC5/USBFS_episr.c ****         /* `#END` */
 340:Generated_Source\PSoC5/USBFS_episr.c **** 
 341:Generated_Source\PSoC5/USBFS_episr.c ****     #ifdef USBFS_EP_4_ISR_EXIT_CALLBACK
 342:Generated_Source\PSoC5/USBFS_episr.c ****         USBFS_EP_4_ISR_ExitCallback();
 343:Generated_Source\PSoC5/USBFS_episr.c ****     #endif /* (USBFS_EP_4_ISR_EXIT_CALLBACK) */
 344:Generated_Source\PSoC5/USBFS_episr.c **** 
 345:Generated_Source\PSoC5/USBFS_episr.c ****     #if (CY_PSOC3 && defined(USBFS_ENABLE_MIDI_STREAMING) && \
 346:Generated_Source\PSoC5/USBFS_episr.c ****         !defined(USBFS_MAIN_SERVICE_MIDI_OUT) && USBFS_ISR_SERVICE_MIDI_OUT)
 347:Generated_Source\PSoC5/USBFS_episr.c ****         
 348:Generated_Source\PSoC5/USBFS_episr.c ****             EA = intEn; /* Restore nested interrupt configuration. */
 349:Generated_Source\PSoC5/USBFS_episr.c ****         }
 350:Generated_Source\PSoC5/USBFS_episr.c ****     #endif /* (CY_PSOC3 && USBFS_ISR_SERVICE_MIDI_OUT) */
 351:Generated_Source\PSoC5/USBFS_episr.c ****     }
 352:Generated_Source\PSoC5/USBFS_episr.c **** #endif /* (USBFS_EP4_ISR_ACTIVE) */
 353:Generated_Source\PSoC5/USBFS_episr.c **** 
 354:Generated_Source\PSoC5/USBFS_episr.c **** 
 355:Generated_Source\PSoC5/USBFS_episr.c **** #if (USBFS_EP5_ISR_ACTIVE)
 356:Generated_Source\PSoC5/USBFS_episr.c ****     /*******************************************************************************
 357:Generated_Source\PSoC5/USBFS_episr.c ****     * Function Name: USBFS_EP_5_ISR
 358:Generated_Source\PSoC5/USBFS_episr.c ****     ****************************************************************************//**
 359:Generated_Source\PSoC5/USBFS_episr.c ****     *
 360:Generated_Source\PSoC5/USBFS_episr.c ****     *  Endpoint 5 Interrupt Service Routine
 361:Generated_Source\PSoC5/USBFS_episr.c ****     *
 362:Generated_Source\PSoC5/USBFS_episr.c ****     *
 363:Generated_Source\PSoC5/USBFS_episr.c ****     *******************************************************************************/
ARM GAS  C:\Users\Admin\AppData\Local\Temp\ccLuJTHH.s 			page 11


 364:Generated_Source\PSoC5/USBFS_episr.c ****     CY_ISR(USBFS_EP_5_ISR)
 365:Generated_Source\PSoC5/USBFS_episr.c ****     {
 366:Generated_Source\PSoC5/USBFS_episr.c ****     #ifdef USBFS_EP_5_ISR_ENTRY_CALLBACK
 367:Generated_Source\PSoC5/USBFS_episr.c ****         USBFS_EP_5_ISR_EntryCallback();
 368:Generated_Source\PSoC5/USBFS_episr.c ****     #endif /* (USBFS_EP_5_ISR_ENTRY_CALLBACK) */
 369:Generated_Source\PSoC5/USBFS_episr.c **** 
 370:Generated_Source\PSoC5/USBFS_episr.c ****         /* `#START EP5_USER_CODE` Place your code here */
 371:Generated_Source\PSoC5/USBFS_episr.c **** 
 372:Generated_Source\PSoC5/USBFS_episr.c ****         /* `#END` */
 373:Generated_Source\PSoC5/USBFS_episr.c **** 
 374:Generated_Source\PSoC5/USBFS_episr.c ****     #if (defined(USBFS_ENABLE_MIDI_STREAMING) && !defined(USBFS_MAIN_SERVICE_MIDI_OUT) && \
 375:Generated_Source\PSoC5/USBFS_episr.c ****                  USBFS_ISR_SERVICE_MIDI_OUT && CY_PSOC3)
 376:Generated_Source\PSoC5/USBFS_episr.c ****         {
 377:Generated_Source\PSoC5/USBFS_episr.c ****             uint8 intEn = EA;
 378:Generated_Source\PSoC5/USBFS_episr.c ****             CyGlobalIntEnable;  /* Enable nested interrupts. */
 379:Generated_Source\PSoC5/USBFS_episr.c ****     #endif /* (CY_PSOC3 && USBFS_ISR_SERVICE_MIDI_OUT) */
 380:Generated_Source\PSoC5/USBFS_episr.c **** 
 381:Generated_Source\PSoC5/USBFS_episr.c ****         USBFS_ClearSieEpInterruptSource(USBFS_SIE_INT_EP5_INTR);
 382:Generated_Source\PSoC5/USBFS_episr.c ****     
 383:Generated_Source\PSoC5/USBFS_episr.c ****         /* Notifies user that transfer IN or OUT transfer is completed.
 384:Generated_Source\PSoC5/USBFS_episr.c ****         * IN endpoint: endpoint buffer can be reloaded, Host is read data.
 385:Generated_Source\PSoC5/USBFS_episr.c ****         * OUT endpoint: data is ready to read from endpoint buffer. 
 386:Generated_Source\PSoC5/USBFS_episr.c ****         */
 387:Generated_Source\PSoC5/USBFS_episr.c ****     #if (CY_PSOC4 && USBFS_EP_MANAGEMENT_DMA_AUTO)
 388:Generated_Source\PSoC5/USBFS_episr.c ****         if (0u != (USBFS_EP[USBFS_EP5].addr & USBFS_DIR_IN))
 389:Generated_Source\PSoC5/USBFS_episr.c ****     #endif /* (USBFS_EP_MANAGEMENT_DMA_AUTO) */
 390:Generated_Source\PSoC5/USBFS_episr.c ****         {            
 391:Generated_Source\PSoC5/USBFS_episr.c ****             /* Read CR0 register to clear SIE lock. */
 392:Generated_Source\PSoC5/USBFS_episr.c ****             (void) USBFS_SIE_EP_BASE.sieEp[USBFS_EP5].epCr0;
 393:Generated_Source\PSoC5/USBFS_episr.c **** 
 394:Generated_Source\PSoC5/USBFS_episr.c ****             /* Toggle all endpoint types except ISOC. */
 395:Generated_Source\PSoC5/USBFS_episr.c ****             if (USBFS_GET_EP_TYPE(USBFS_EP5) != USBFS_EP_TYPE_ISOC)
 396:Generated_Source\PSoC5/USBFS_episr.c ****             {
 397:Generated_Source\PSoC5/USBFS_episr.c ****                 USBFS_EP[USBFS_EP5].epToggle ^= USBFS_EPX_CNT_DATA_TOGGLE;
 398:Generated_Source\PSoC5/USBFS_episr.c ****             }
 399:Generated_Source\PSoC5/USBFS_episr.c **** 
 400:Generated_Source\PSoC5/USBFS_episr.c ****             /* EP_MANAGEMENT_DMA_AUTO (Ticket ID# 214187): For OUT endpoint this event is used to n
 401:Generated_Source\PSoC5/USBFS_episr.c ****             * user that DMA has completed copying data from OUT endpoint which is not completely tr
 402:Generated_Source\PSoC5/USBFS_episr.c ****             * Because last chunk of data is being copied.
 403:Generated_Source\PSoC5/USBFS_episr.c ****             * For CY_PSOC 3/5LP: it is acceptable as DMA is really fast.
 404:Generated_Source\PSoC5/USBFS_episr.c ****             * For CY_PSOC4: this event is set in Arbiter interrupt (source is DMA_TERMIN).
 405:Generated_Source\PSoC5/USBFS_episr.c ****             */
 406:Generated_Source\PSoC5/USBFS_episr.c ****             USBFS_EP[USBFS_EP5].apiEpState = USBFS_EVENT_PENDING;
 407:Generated_Source\PSoC5/USBFS_episr.c ****         }
 408:Generated_Source\PSoC5/USBFS_episr.c **** 
 409:Generated_Source\PSoC5/USBFS_episr.c ****     #if (!(CY_PSOC4 && USBFS_EP_MANAGEMENT_DMA_AUTO))        
 410:Generated_Source\PSoC5/USBFS_episr.c ****         #if (defined(USBFS_ENABLE_MIDI_STREAMING) && \
 411:Generated_Source\PSoC5/USBFS_episr.c ****             !defined(USBFS_MAIN_SERVICE_MIDI_OUT) && USBFS_ISR_SERVICE_MIDI_OUT)
 412:Generated_Source\PSoC5/USBFS_episr.c ****             if (USBFS_midi_out_ep == USBFS_EP5)
 413:Generated_Source\PSoC5/USBFS_episr.c ****             {
 414:Generated_Source\PSoC5/USBFS_episr.c ****                 USBFS_MIDI_OUT_Service();
 415:Generated_Source\PSoC5/USBFS_episr.c ****             }
 416:Generated_Source\PSoC5/USBFS_episr.c ****         #endif /* (USBFS_ISR_SERVICE_MIDI_OUT) */
 417:Generated_Source\PSoC5/USBFS_episr.c ****     #endif /* (!(CY_PSOC4 && USBFS_EP_MANAGEMENT_DMA_AUTO)) */
 418:Generated_Source\PSoC5/USBFS_episr.c **** 
 419:Generated_Source\PSoC5/USBFS_episr.c ****         /* `#START EP5_END_USER_CODE` Place your code here */
 420:Generated_Source\PSoC5/USBFS_episr.c **** 
ARM GAS  C:\Users\Admin\AppData\Local\Temp\ccLuJTHH.s 			page 12


 421:Generated_Source\PSoC5/USBFS_episr.c ****         /* `#END` */
 422:Generated_Source\PSoC5/USBFS_episr.c **** 
 423:Generated_Source\PSoC5/USBFS_episr.c ****     #ifdef USBFS_EP_5_ISR_EXIT_CALLBACK
 424:Generated_Source\PSoC5/USBFS_episr.c ****         USBFS_EP_5_ISR_ExitCallback();
 425:Generated_Source\PSoC5/USBFS_episr.c ****     #endif /* (USBFS_EP_5_ISR_EXIT_CALLBACK) */
 426:Generated_Source\PSoC5/USBFS_episr.c **** 
 427:Generated_Source\PSoC5/USBFS_episr.c ****     #if (CY_PSOC3 && defined(USBFS_ENABLE_MIDI_STREAMING) && \
 428:Generated_Source\PSoC5/USBFS_episr.c ****         !defined(USBFS_MAIN_SERVICE_MIDI_OUT) && USBFS_ISR_SERVICE_MIDI_OUT)
 429:Generated_Source\PSoC5/USBFS_episr.c ****         
 430:Generated_Source\PSoC5/USBFS_episr.c ****             EA = intEn; /* Restore nested interrupt configuration. */
 431:Generated_Source\PSoC5/USBFS_episr.c ****         }
 432:Generated_Source\PSoC5/USBFS_episr.c ****     #endif /* (CY_PSOC3 && USBFS_ISR_SERVICE_MIDI_OUT) */
 433:Generated_Source\PSoC5/USBFS_episr.c ****     }
 434:Generated_Source\PSoC5/USBFS_episr.c **** #endif /* (USBFS_EP5_ISR_ACTIVE) */
 435:Generated_Source\PSoC5/USBFS_episr.c **** 
 436:Generated_Source\PSoC5/USBFS_episr.c **** 
 437:Generated_Source\PSoC5/USBFS_episr.c **** #if (USBFS_EP6_ISR_ACTIVE)
 438:Generated_Source\PSoC5/USBFS_episr.c ****     /*******************************************************************************
 439:Generated_Source\PSoC5/USBFS_episr.c ****     * Function Name: USBFS_EP_6_ISR
 440:Generated_Source\PSoC5/USBFS_episr.c ****     ****************************************************************************//**
 441:Generated_Source\PSoC5/USBFS_episr.c ****     *
 442:Generated_Source\PSoC5/USBFS_episr.c ****     *  Endpoint 6 Interrupt Service Routine.
 443:Generated_Source\PSoC5/USBFS_episr.c ****     *
 444:Generated_Source\PSoC5/USBFS_episr.c ****     *
 445:Generated_Source\PSoC5/USBFS_episr.c ****     *******************************************************************************/
 446:Generated_Source\PSoC5/USBFS_episr.c ****     CY_ISR(USBFS_EP_6_ISR)
 447:Generated_Source\PSoC5/USBFS_episr.c ****     {
 448:Generated_Source\PSoC5/USBFS_episr.c ****     #ifdef USBFS_EP_6_ISR_ENTRY_CALLBACK
 449:Generated_Source\PSoC5/USBFS_episr.c ****         USBFS_EP_6_ISR_EntryCallback();
 450:Generated_Source\PSoC5/USBFS_episr.c ****     #endif /* (USBFS_EP_6_ISR_ENTRY_CALLBACK) */
 451:Generated_Source\PSoC5/USBFS_episr.c **** 
 452:Generated_Source\PSoC5/USBFS_episr.c ****         /* `#START EP6_USER_CODE` Place your code here */
 453:Generated_Source\PSoC5/USBFS_episr.c **** 
 454:Generated_Source\PSoC5/USBFS_episr.c ****         /* `#END` */
 455:Generated_Source\PSoC5/USBFS_episr.c **** 
 456:Generated_Source\PSoC5/USBFS_episr.c ****     #if (CY_PSOC3 && defined(USBFS_ENABLE_MIDI_STREAMING) && \
 457:Generated_Source\PSoC5/USBFS_episr.c ****         !defined(USBFS_MAIN_SERVICE_MIDI_OUT) && USBFS_ISR_SERVICE_MIDI_OUT)
 458:Generated_Source\PSoC5/USBFS_episr.c ****         {
 459:Generated_Source\PSoC5/USBFS_episr.c ****             uint8 intEn = EA;
 460:Generated_Source\PSoC5/USBFS_episr.c ****             CyGlobalIntEnable;  /* Enable nested interrupts. */
 461:Generated_Source\PSoC5/USBFS_episr.c ****     #endif /* (CY_PSOC3 && USBFS_ISR_SERVICE_MIDI_OUT) */
 462:Generated_Source\PSoC5/USBFS_episr.c **** 
 463:Generated_Source\PSoC5/USBFS_episr.c ****         USBFS_ClearSieEpInterruptSource(USBFS_SIE_INT_EP6_INTR);
 464:Generated_Source\PSoC5/USBFS_episr.c ****         
 465:Generated_Source\PSoC5/USBFS_episr.c ****         /* Notifies user that transfer IN or OUT transfer is completed.
 466:Generated_Source\PSoC5/USBFS_episr.c ****         * IN endpoint: endpoint buffer can be reloaded, Host is read data.
 467:Generated_Source\PSoC5/USBFS_episr.c ****         * OUT endpoint: data is ready to read from endpoint buffer. 
 468:Generated_Source\PSoC5/USBFS_episr.c ****         */
 469:Generated_Source\PSoC5/USBFS_episr.c ****     #if (CY_PSOC4 && USBFS_EP_MANAGEMENT_DMA_AUTO)
 470:Generated_Source\PSoC5/USBFS_episr.c ****         if (0u != (USBFS_EP[USBFS_EP6].addr & USBFS_DIR_IN))
 471:Generated_Source\PSoC5/USBFS_episr.c ****     #endif /* (USBFS_EP_MANAGEMENT_DMA_AUTO) */
 472:Generated_Source\PSoC5/USBFS_episr.c ****         {
 473:Generated_Source\PSoC5/USBFS_episr.c ****             /* Read CR0 register to clear SIE lock. */
 474:Generated_Source\PSoC5/USBFS_episr.c ****             (void) USBFS_SIE_EP_BASE.sieEp[USBFS_EP6].epCr0;
 475:Generated_Source\PSoC5/USBFS_episr.c **** 
 476:Generated_Source\PSoC5/USBFS_episr.c ****             /* Toggle all endpoint types except ISOC. */
 477:Generated_Source\PSoC5/USBFS_episr.c ****             if (USBFS_GET_EP_TYPE(USBFS_EP6) != USBFS_EP_TYPE_ISOC)
ARM GAS  C:\Users\Admin\AppData\Local\Temp\ccLuJTHH.s 			page 13


 478:Generated_Source\PSoC5/USBFS_episr.c ****             {
 479:Generated_Source\PSoC5/USBFS_episr.c ****                 USBFS_EP[USBFS_EP6].epToggle ^= USBFS_EPX_CNT_DATA_TOGGLE;
 480:Generated_Source\PSoC5/USBFS_episr.c ****             }
 481:Generated_Source\PSoC5/USBFS_episr.c ****             
 482:Generated_Source\PSoC5/USBFS_episr.c ****             /* EP_MANAGEMENT_DMA_AUTO (Ticket ID# 214187): For OUT endpoint this event is used to n
 483:Generated_Source\PSoC5/USBFS_episr.c ****             * user that DMA has completed copying data from OUT endpoint which is not completely tr
 484:Generated_Source\PSoC5/USBFS_episr.c ****             * Because last chunk of data is being copied.
 485:Generated_Source\PSoC5/USBFS_episr.c ****             * For CY_PSOC 3/5LP: it is acceptable as DMA is really fast.
 486:Generated_Source\PSoC5/USBFS_episr.c ****             * For CY_PSOC4: this event is set in Arbiter interrupt (source is DMA_TERMIN).
 487:Generated_Source\PSoC5/USBFS_episr.c ****             */
 488:Generated_Source\PSoC5/USBFS_episr.c ****             USBFS_EP[USBFS_EP6].apiEpState = USBFS_EVENT_PENDING;
 489:Generated_Source\PSoC5/USBFS_episr.c ****         }
 490:Generated_Source\PSoC5/USBFS_episr.c **** 
 491:Generated_Source\PSoC5/USBFS_episr.c ****     #if (!(CY_PSOC4 && USBFS_EP_MANAGEMENT_DMA_AUTO))
 492:Generated_Source\PSoC5/USBFS_episr.c ****         #if (defined(USBFS_ENABLE_MIDI_STREAMING) && \
 493:Generated_Source\PSoC5/USBFS_episr.c ****             !defined(USBFS_MAIN_SERVICE_MIDI_OUT) && USBFS_ISR_SERVICE_MIDI_OUT)
 494:Generated_Source\PSoC5/USBFS_episr.c ****             if (USBFS_midi_out_ep == USBFS_EP6)
 495:Generated_Source\PSoC5/USBFS_episr.c ****             {
 496:Generated_Source\PSoC5/USBFS_episr.c ****                 USBFS_MIDI_OUT_Service();
 497:Generated_Source\PSoC5/USBFS_episr.c ****             }
 498:Generated_Source\PSoC5/USBFS_episr.c ****         #endif /* (USBFS_ISR_SERVICE_MIDI_OUT) */
 499:Generated_Source\PSoC5/USBFS_episr.c ****     #endif /* (!(CY_PSOC4 && USBFS_EP_MANAGEMENT_DMA_AUTO)) */
 500:Generated_Source\PSoC5/USBFS_episr.c **** 
 501:Generated_Source\PSoC5/USBFS_episr.c ****         /* `#START EP6_END_USER_CODE` Place your code here */
 502:Generated_Source\PSoC5/USBFS_episr.c **** 
 503:Generated_Source\PSoC5/USBFS_episr.c ****         /* `#END` */
 504:Generated_Source\PSoC5/USBFS_episr.c **** 
 505:Generated_Source\PSoC5/USBFS_episr.c ****     #ifdef USBFS_EP_6_ISR_EXIT_CALLBACK
 506:Generated_Source\PSoC5/USBFS_episr.c ****         USBFS_EP_6_ISR_ExitCallback();
 507:Generated_Source\PSoC5/USBFS_episr.c ****     #endif /* (USBFS_EP_6_ISR_EXIT_CALLBACK) */
 508:Generated_Source\PSoC5/USBFS_episr.c **** 
 509:Generated_Source\PSoC5/USBFS_episr.c ****     #if (CY_PSOC3 && defined(USBFS_ENABLE_MIDI_STREAMING) && \
 510:Generated_Source\PSoC5/USBFS_episr.c ****         !defined(USBFS_MAIN_SERVICE_MIDI_OUT) && USBFS_ISR_SERVICE_MIDI_OUT)
 511:Generated_Source\PSoC5/USBFS_episr.c ****         
 512:Generated_Source\PSoC5/USBFS_episr.c ****             EA = intEn; /* Restore nested interrupt configuration. */
 513:Generated_Source\PSoC5/USBFS_episr.c ****         }
 514:Generated_Source\PSoC5/USBFS_episr.c ****     #endif /* (CY_PSOC3 && USBFS_ISR_SERVICE_MIDI_OUT) */
 515:Generated_Source\PSoC5/USBFS_episr.c ****     }
 516:Generated_Source\PSoC5/USBFS_episr.c **** #endif /* (USBFS_EP6_ISR_ACTIVE) */
 517:Generated_Source\PSoC5/USBFS_episr.c **** 
 518:Generated_Source\PSoC5/USBFS_episr.c **** 
 519:Generated_Source\PSoC5/USBFS_episr.c **** #if (USBFS_EP7_ISR_ACTIVE)
 520:Generated_Source\PSoC5/USBFS_episr.c ****     /*******************************************************************************
 521:Generated_Source\PSoC5/USBFS_episr.c ****     * Function Name: USBFS_EP_7_ISR
 522:Generated_Source\PSoC5/USBFS_episr.c ****     ****************************************************************************//**
 523:Generated_Source\PSoC5/USBFS_episr.c ****     *
 524:Generated_Source\PSoC5/USBFS_episr.c ****     *  Endpoint 7 Interrupt Service Routine.
 525:Generated_Source\PSoC5/USBFS_episr.c ****     *
 526:Generated_Source\PSoC5/USBFS_episr.c ****     *
 527:Generated_Source\PSoC5/USBFS_episr.c ****     *******************************************************************************/
 528:Generated_Source\PSoC5/USBFS_episr.c ****     CY_ISR(USBFS_EP_7_ISR)
 529:Generated_Source\PSoC5/USBFS_episr.c ****     {
 530:Generated_Source\PSoC5/USBFS_episr.c ****     #ifdef USBFS_EP_7_ISR_ENTRY_CALLBACK
 531:Generated_Source\PSoC5/USBFS_episr.c ****         USBFS_EP_7_ISR_EntryCallback();
 532:Generated_Source\PSoC5/USBFS_episr.c ****     #endif /* (USBFS_EP_7_ISR_ENTRY_CALLBACK) */
 533:Generated_Source\PSoC5/USBFS_episr.c **** 
 534:Generated_Source\PSoC5/USBFS_episr.c ****         /* `#START EP7_USER_CODE` Place your code here */
ARM GAS  C:\Users\Admin\AppData\Local\Temp\ccLuJTHH.s 			page 14


 535:Generated_Source\PSoC5/USBFS_episr.c **** 
 536:Generated_Source\PSoC5/USBFS_episr.c ****         /* `#END` */
 537:Generated_Source\PSoC5/USBFS_episr.c **** 
 538:Generated_Source\PSoC5/USBFS_episr.c ****     #if (CY_PSOC3 && defined(USBFS_ENABLE_MIDI_STREAMING) && \
 539:Generated_Source\PSoC5/USBFS_episr.c ****         !defined(USBFS_MAIN_SERVICE_MIDI_OUT) && USBFS_ISR_SERVICE_MIDI_OUT)
 540:Generated_Source\PSoC5/USBFS_episr.c ****         {
 541:Generated_Source\PSoC5/USBFS_episr.c ****             uint8 intEn = EA;
 542:Generated_Source\PSoC5/USBFS_episr.c ****             CyGlobalIntEnable;  /* Enable nested interrupts. */
 543:Generated_Source\PSoC5/USBFS_episr.c ****     #endif /* (CY_PSOC3 && USBFS_ISR_SERVICE_MIDI_OUT) */
 544:Generated_Source\PSoC5/USBFS_episr.c ****     
 545:Generated_Source\PSoC5/USBFS_episr.c ****         USBFS_ClearSieEpInterruptSource(USBFS_SIE_INT_EP7_INTR);
 546:Generated_Source\PSoC5/USBFS_episr.c ****         
 547:Generated_Source\PSoC5/USBFS_episr.c ****         /* Notifies user that transfer IN or OUT transfer is completed.
 548:Generated_Source\PSoC5/USBFS_episr.c ****         * IN endpoint: endpoint buffer can be reloaded, Host is read data.
 549:Generated_Source\PSoC5/USBFS_episr.c ****         * OUT endpoint: data is ready to read from endpoint buffer. 
 550:Generated_Source\PSoC5/USBFS_episr.c ****         */
 551:Generated_Source\PSoC5/USBFS_episr.c ****     #if (CY_PSOC4 && USBFS_EP_MANAGEMENT_DMA_AUTO)
 552:Generated_Source\PSoC5/USBFS_episr.c ****         if (0u != (USBFS_EP[USBFS_EP7].addr & USBFS_DIR_IN))
 553:Generated_Source\PSoC5/USBFS_episr.c ****     #endif /* (USBFS_EP_MANAGEMENT_DMA_AUTO) */
 554:Generated_Source\PSoC5/USBFS_episr.c ****         {           
 555:Generated_Source\PSoC5/USBFS_episr.c ****             /* Read CR0 register to clear SIE lock. */
 556:Generated_Source\PSoC5/USBFS_episr.c ****             (void) USBFS_SIE_EP_BASE.sieEp[USBFS_EP7].epCr0;
 557:Generated_Source\PSoC5/USBFS_episr.c **** 
 558:Generated_Source\PSoC5/USBFS_episr.c ****             /* Toggle all endpoint types except ISOC. */
 559:Generated_Source\PSoC5/USBFS_episr.c ****             if (USBFS_GET_EP_TYPE(USBFS_EP7) != USBFS_EP_TYPE_ISOC)
 560:Generated_Source\PSoC5/USBFS_episr.c ****             {
 561:Generated_Source\PSoC5/USBFS_episr.c ****                 USBFS_EP[USBFS_EP7].epToggle ^= USBFS_EPX_CNT_DATA_TOGGLE;
 562:Generated_Source\PSoC5/USBFS_episr.c ****             }
 563:Generated_Source\PSoC5/USBFS_episr.c ****             
 564:Generated_Source\PSoC5/USBFS_episr.c ****             /* EP_MANAGEMENT_DMA_AUTO (Ticket ID# 214187): For OUT endpoint this event is used to n
 565:Generated_Source\PSoC5/USBFS_episr.c ****             * user that DMA has completed copying data from OUT endpoint which is not completely tr
 566:Generated_Source\PSoC5/USBFS_episr.c ****             * Because last chunk of data is being copied.
 567:Generated_Source\PSoC5/USBFS_episr.c ****             * For CY_PSOC 3/5LP: it is acceptable as DMA is really fast.
 568:Generated_Source\PSoC5/USBFS_episr.c ****             * For CY_PSOC4: this event is set in Arbiter interrupt (source is DMA_TERMIN).
 569:Generated_Source\PSoC5/USBFS_episr.c ****             */
 570:Generated_Source\PSoC5/USBFS_episr.c ****             USBFS_EP[USBFS_EP7].apiEpState = USBFS_EVENT_PENDING;
 571:Generated_Source\PSoC5/USBFS_episr.c ****         }
 572:Generated_Source\PSoC5/USBFS_episr.c **** 
 573:Generated_Source\PSoC5/USBFS_episr.c **** 
 574:Generated_Source\PSoC5/USBFS_episr.c ****     #if (!(CY_PSOC4 && USBFS_EP_MANAGEMENT_DMA_AUTO))
 575:Generated_Source\PSoC5/USBFS_episr.c ****         #if (defined(USBFS_ENABLE_MIDI_STREAMING) && \
 576:Generated_Source\PSoC5/USBFS_episr.c ****             !defined(USBFS_MAIN_SERVICE_MIDI_OUT) && USBFS_ISR_SERVICE_MIDI_OUT)
 577:Generated_Source\PSoC5/USBFS_episr.c ****             if(USBFS_midi_out_ep == USBFS_EP7)
 578:Generated_Source\PSoC5/USBFS_episr.c ****             {
 579:Generated_Source\PSoC5/USBFS_episr.c ****                 USBFS_MIDI_OUT_Service();
 580:Generated_Source\PSoC5/USBFS_episr.c ****             }
 581:Generated_Source\PSoC5/USBFS_episr.c ****         #endif /* (USBFS_ISR_SERVICE_MIDI_OUT) */
 582:Generated_Source\PSoC5/USBFS_episr.c ****     #endif /* (!(CY_PSOC4 && USBFS_EP_MANAGEMENT_DMA_AUTO)) */
 583:Generated_Source\PSoC5/USBFS_episr.c **** 
 584:Generated_Source\PSoC5/USBFS_episr.c ****         /* `#START EP7_END_USER_CODE` Place your code here */
 585:Generated_Source\PSoC5/USBFS_episr.c **** 
 586:Generated_Source\PSoC5/USBFS_episr.c ****         /* `#END` */
 587:Generated_Source\PSoC5/USBFS_episr.c **** 
 588:Generated_Source\PSoC5/USBFS_episr.c ****     #ifdef USBFS_EP_7_ISR_EXIT_CALLBACK
 589:Generated_Source\PSoC5/USBFS_episr.c ****         USBFS_EP_7_ISR_ExitCallback();
 590:Generated_Source\PSoC5/USBFS_episr.c ****     #endif /* (USBFS_EP_7_ISR_EXIT_CALLBACK) */
 591:Generated_Source\PSoC5/USBFS_episr.c **** 
ARM GAS  C:\Users\Admin\AppData\Local\Temp\ccLuJTHH.s 			page 15


 592:Generated_Source\PSoC5/USBFS_episr.c ****     #if (CY_PSOC3 && defined(USBFS_ENABLE_MIDI_STREAMING) && \
 593:Generated_Source\PSoC5/USBFS_episr.c ****         !defined(USBFS_MAIN_SERVICE_MIDI_OUT) && USBFS_ISR_SERVICE_MIDI_OUT)
 594:Generated_Source\PSoC5/USBFS_episr.c ****         
 595:Generated_Source\PSoC5/USBFS_episr.c ****             EA = intEn; /* Restore nested interrupt configuration. */
 596:Generated_Source\PSoC5/USBFS_episr.c ****         }
 597:Generated_Source\PSoC5/USBFS_episr.c ****     #endif /* (CY_PSOC3 && USBFS_ISR_SERVICE_MIDI_OUT) */
 598:Generated_Source\PSoC5/USBFS_episr.c ****     }
 599:Generated_Source\PSoC5/USBFS_episr.c **** #endif /* (USBFS_EP7_ISR_ACTIVE) */
 600:Generated_Source\PSoC5/USBFS_episr.c **** 
 601:Generated_Source\PSoC5/USBFS_episr.c **** 
 602:Generated_Source\PSoC5/USBFS_episr.c **** #if (USBFS_EP8_ISR_ACTIVE)
 603:Generated_Source\PSoC5/USBFS_episr.c ****     /*******************************************************************************
 604:Generated_Source\PSoC5/USBFS_episr.c ****     * Function Name: USBFS_EP_8_ISR
 605:Generated_Source\PSoC5/USBFS_episr.c ****     ****************************************************************************//**
 606:Generated_Source\PSoC5/USBFS_episr.c ****     *
 607:Generated_Source\PSoC5/USBFS_episr.c ****     *  Endpoint 8 Interrupt Service Routine
 608:Generated_Source\PSoC5/USBFS_episr.c ****     *
 609:Generated_Source\PSoC5/USBFS_episr.c ****     *
 610:Generated_Source\PSoC5/USBFS_episr.c ****     *******************************************************************************/
 611:Generated_Source\PSoC5/USBFS_episr.c ****     CY_ISR(USBFS_EP_8_ISR)
 612:Generated_Source\PSoC5/USBFS_episr.c ****     {
 613:Generated_Source\PSoC5/USBFS_episr.c ****     #ifdef USBFS_EP_8_ISR_ENTRY_CALLBACK
 614:Generated_Source\PSoC5/USBFS_episr.c ****         USBFS_EP_8_ISR_EntryCallback();
 615:Generated_Source\PSoC5/USBFS_episr.c ****     #endif /* (USBFS_EP_8_ISR_ENTRY_CALLBACK) */
 616:Generated_Source\PSoC5/USBFS_episr.c **** 
 617:Generated_Source\PSoC5/USBFS_episr.c ****         /* `#START EP8_USER_CODE` Place your code here */
 618:Generated_Source\PSoC5/USBFS_episr.c **** 
 619:Generated_Source\PSoC5/USBFS_episr.c ****         /* `#END` */
 620:Generated_Source\PSoC5/USBFS_episr.c **** 
 621:Generated_Source\PSoC5/USBFS_episr.c ****     #if (CY_PSOC3 && defined(USBFS_ENABLE_MIDI_STREAMING) && \
 622:Generated_Source\PSoC5/USBFS_episr.c ****         !defined(USBFS_MAIN_SERVICE_MIDI_OUT) && USBFS_ISR_SERVICE_MIDI_OUT)
 623:Generated_Source\PSoC5/USBFS_episr.c ****         {
 624:Generated_Source\PSoC5/USBFS_episr.c ****             uint8 intEn = EA;
 625:Generated_Source\PSoC5/USBFS_episr.c ****             CyGlobalIntEnable;  /* Enable nested interrupts. */
 626:Generated_Source\PSoC5/USBFS_episr.c ****     #endif /* (CY_PSOC3 && USBFS_ISR_SERVICE_MIDI_OUT) */
 627:Generated_Source\PSoC5/USBFS_episr.c **** 
 628:Generated_Source\PSoC5/USBFS_episr.c ****         USBFS_ClearSieEpInterruptSource(USBFS_SIE_INT_EP8_INTR);
 629:Generated_Source\PSoC5/USBFS_episr.c ****         
 630:Generated_Source\PSoC5/USBFS_episr.c ****         /* Notifies user that transfer IN or OUT transfer is completed.
 631:Generated_Source\PSoC5/USBFS_episr.c ****         * IN endpoint: endpoint buffer can be reloaded, Host is read data.
 632:Generated_Source\PSoC5/USBFS_episr.c ****         * OUT endpoint: data is ready to read from endpoint buffer. 
 633:Generated_Source\PSoC5/USBFS_episr.c ****         */
 634:Generated_Source\PSoC5/USBFS_episr.c ****     #if (CY_PSOC4 && USBFS_EP_MANAGEMENT_DMA_AUTO)
 635:Generated_Source\PSoC5/USBFS_episr.c ****         if (0u != (USBFS_EP[USBFS_EP8].addr & USBFS_DIR_IN))
 636:Generated_Source\PSoC5/USBFS_episr.c ****     #endif /* (USBFS_EP_MANAGEMENT_DMA_AUTO) */
 637:Generated_Source\PSoC5/USBFS_episr.c ****         {
 638:Generated_Source\PSoC5/USBFS_episr.c ****             /* Read CR0 register to clear SIE lock. */
 639:Generated_Source\PSoC5/USBFS_episr.c ****             (void) USBFS_SIE_EP_BASE.sieEp[USBFS_EP8].epCr0;
 640:Generated_Source\PSoC5/USBFS_episr.c **** 
 641:Generated_Source\PSoC5/USBFS_episr.c ****             /* Toggle all endpoint types except ISOC. */
 642:Generated_Source\PSoC5/USBFS_episr.c ****             if (USBFS_GET_EP_TYPE(USBFS_EP8) != USBFS_EP_TYPE_ISOC)
 643:Generated_Source\PSoC5/USBFS_episr.c ****             {
 644:Generated_Source\PSoC5/USBFS_episr.c ****                 USBFS_EP[USBFS_EP8].epToggle ^= USBFS_EPX_CNT_DATA_TOGGLE;
 645:Generated_Source\PSoC5/USBFS_episr.c ****             }
 646:Generated_Source\PSoC5/USBFS_episr.c **** 
 647:Generated_Source\PSoC5/USBFS_episr.c ****             /* EP_MANAGEMENT_DMA_AUTO (Ticket ID# 214187): For OUT endpoint this event is used to n
 648:Generated_Source\PSoC5/USBFS_episr.c ****             * user that DMA has completed copying data from OUT endpoint which is not completely tr
ARM GAS  C:\Users\Admin\AppData\Local\Temp\ccLuJTHH.s 			page 16


 649:Generated_Source\PSoC5/USBFS_episr.c ****             * Because last chunk of data is being copied.
 650:Generated_Source\PSoC5/USBFS_episr.c ****             * For CY_PSOC 3/5LP: it is acceptable as DMA is really fast.
 651:Generated_Source\PSoC5/USBFS_episr.c ****             * For CY_PSOC4: this event is set in Arbiter interrupt (source is DMA_TERMIN).
 652:Generated_Source\PSoC5/USBFS_episr.c ****             */
 653:Generated_Source\PSoC5/USBFS_episr.c ****             USBFS_EP[USBFS_EP8].apiEpState = USBFS_EVENT_PENDING;
 654:Generated_Source\PSoC5/USBFS_episr.c ****         }
 655:Generated_Source\PSoC5/USBFS_episr.c **** 
 656:Generated_Source\PSoC5/USBFS_episr.c ****     #if (!(CY_PSOC4 && USBFS_EP_MANAGEMENT_DMA_AUTO))
 657:Generated_Source\PSoC5/USBFS_episr.c ****         #if (defined(USBFS_ENABLE_MIDI_STREAMING) && \
 658:Generated_Source\PSoC5/USBFS_episr.c ****             !defined(USBFS_MAIN_SERVICE_MIDI_OUT) && USBFS_ISR_SERVICE_MIDI_OUT)
 659:Generated_Source\PSoC5/USBFS_episr.c ****             if (USBFS_midi_out_ep == USBFS_EP8)
 660:Generated_Source\PSoC5/USBFS_episr.c ****             {
 661:Generated_Source\PSoC5/USBFS_episr.c ****                 USBFS_MIDI_OUT_Service();
 662:Generated_Source\PSoC5/USBFS_episr.c ****             }
 663:Generated_Source\PSoC5/USBFS_episr.c ****         #endif /* (USBFS_ISR_SERVICE_MIDI_OUT) */
 664:Generated_Source\PSoC5/USBFS_episr.c ****     #endif /* (!(CY_PSOC4 && USBFS_EP_MANAGEMENT_DMA_AUTO)) */
 665:Generated_Source\PSoC5/USBFS_episr.c **** 
 666:Generated_Source\PSoC5/USBFS_episr.c ****         /* `#START EP8_END_USER_CODE` Place your code here */
 667:Generated_Source\PSoC5/USBFS_episr.c **** 
 668:Generated_Source\PSoC5/USBFS_episr.c ****         /* `#END` */
 669:Generated_Source\PSoC5/USBFS_episr.c **** 
 670:Generated_Source\PSoC5/USBFS_episr.c ****     #ifdef USBFS_EP_8_ISR_EXIT_CALLBACK
 671:Generated_Source\PSoC5/USBFS_episr.c ****         USBFS_EP_8_ISR_ExitCallback();
 672:Generated_Source\PSoC5/USBFS_episr.c ****     #endif /* (USBFS_EP_8_ISR_EXIT_CALLBACK) */
 673:Generated_Source\PSoC5/USBFS_episr.c **** 
 674:Generated_Source\PSoC5/USBFS_episr.c ****     #if (CY_PSOC3 && defined(USBFS_ENABLE_MIDI_STREAMING) && \
 675:Generated_Source\PSoC5/USBFS_episr.c ****         !defined(USBFS_MAIN_SERVICE_MIDI_OUT) && USBFS_ISR_SERVICE_MIDI_OUT)
 676:Generated_Source\PSoC5/USBFS_episr.c ****         
 677:Generated_Source\PSoC5/USBFS_episr.c ****             EA = intEn; /* Restore nested interrupt configuration. */
 678:Generated_Source\PSoC5/USBFS_episr.c ****         }
 679:Generated_Source\PSoC5/USBFS_episr.c ****     #endif /* (CY_PSOC3 && USBFS_ISR_SERVICE_MIDI_OUT) */
 680:Generated_Source\PSoC5/USBFS_episr.c ****     }
 681:Generated_Source\PSoC5/USBFS_episr.c **** #endif /* (USBFS_EP8_ISR_ACTIVE) */
 682:Generated_Source\PSoC5/USBFS_episr.c **** 
 683:Generated_Source\PSoC5/USBFS_episr.c **** 
 684:Generated_Source\PSoC5/USBFS_episr.c **** #if (USBFS_SOF_ISR_ACTIVE)
 685:Generated_Source\PSoC5/USBFS_episr.c ****     /*******************************************************************************
 686:Generated_Source\PSoC5/USBFS_episr.c ****     * Function Name: USBFS_SOF_ISR
 687:Generated_Source\PSoC5/USBFS_episr.c ****     ****************************************************************************//**
 688:Generated_Source\PSoC5/USBFS_episr.c ****     *
 689:Generated_Source\PSoC5/USBFS_episr.c ****     *  Start of Frame Interrupt Service Routine.
 690:Generated_Source\PSoC5/USBFS_episr.c ****     *
 691:Generated_Source\PSoC5/USBFS_episr.c ****     *
 692:Generated_Source\PSoC5/USBFS_episr.c ****     *******************************************************************************/
 693:Generated_Source\PSoC5/USBFS_episr.c ****     CY_ISR(USBFS_SOF_ISR)
 694:Generated_Source\PSoC5/USBFS_episr.c ****     {
 695:Generated_Source\PSoC5/USBFS_episr.c ****     #ifdef USBFS_SOF_ISR_ENTRY_CALLBACK
 696:Generated_Source\PSoC5/USBFS_episr.c ****         USBFS_SOF_ISR_EntryCallback();
 697:Generated_Source\PSoC5/USBFS_episr.c ****     #endif /* (USBFS_SOF_ISR_ENTRY_CALLBACK) */
 698:Generated_Source\PSoC5/USBFS_episr.c **** 
 699:Generated_Source\PSoC5/USBFS_episr.c ****         /* `#START SOF_USER_CODE` Place your code here */
 700:Generated_Source\PSoC5/USBFS_episr.c **** 
 701:Generated_Source\PSoC5/USBFS_episr.c ****         /* `#END` */
 702:Generated_Source\PSoC5/USBFS_episr.c **** 
 703:Generated_Source\PSoC5/USBFS_episr.c ****         USBFS_ClearSieInterruptSource(USBFS_INTR_SIE_SOF_INTR);
 704:Generated_Source\PSoC5/USBFS_episr.c **** 
 705:Generated_Source\PSoC5/USBFS_episr.c ****     #ifdef USBFS_SOF_ISR_EXIT_CALLBACK
ARM GAS  C:\Users\Admin\AppData\Local\Temp\ccLuJTHH.s 			page 17


 706:Generated_Source\PSoC5/USBFS_episr.c ****         USBFS_SOF_ISR_ExitCallback();
 707:Generated_Source\PSoC5/USBFS_episr.c ****     #endif /* (USBFS_SOF_ISR_EXIT_CALLBACK) */
 708:Generated_Source\PSoC5/USBFS_episr.c ****     }
 709:Generated_Source\PSoC5/USBFS_episr.c **** #endif /* (USBFS_SOF_ISR_ACTIVE) */
 710:Generated_Source\PSoC5/USBFS_episr.c **** 
 711:Generated_Source\PSoC5/USBFS_episr.c **** 
 712:Generated_Source\PSoC5/USBFS_episr.c **** #if (USBFS_BUS_RESET_ISR_ACTIVE)
 713:Generated_Source\PSoC5/USBFS_episr.c **** /*******************************************************************************
 714:Generated_Source\PSoC5/USBFS_episr.c **** * Function Name: USBFS_BUS_RESET_ISR
 715:Generated_Source\PSoC5/USBFS_episr.c **** ****************************************************************************//**
 716:Generated_Source\PSoC5/USBFS_episr.c **** *
 717:Generated_Source\PSoC5/USBFS_episr.c **** *  USB Bus Reset Interrupt Service Routine.  Calls _Start with the same
 718:Generated_Source\PSoC5/USBFS_episr.c **** *  parameters as the last USER call to _Start
 719:Generated_Source\PSoC5/USBFS_episr.c **** *
 720:Generated_Source\PSoC5/USBFS_episr.c **** *
 721:Generated_Source\PSoC5/USBFS_episr.c **** *******************************************************************************/
 722:Generated_Source\PSoC5/USBFS_episr.c **** CY_ISR(USBFS_BUS_RESET_ISR)
 723:Generated_Source\PSoC5/USBFS_episr.c **** {
 208              		.loc 1 723 0
 209              		.cfi_startproc
 210              		@ args = 0, pretend = 0, frame = 0
 211              		@ frame_needed = 0, uses_anonymous_args = 0
 212 0000 08B5     		push	{r3, lr}
 213              		.cfi_def_cfa_offset 8
 214              		.cfi_offset 3, -8
 215              		.cfi_offset 14, -4
 724:Generated_Source\PSoC5/USBFS_episr.c **** #ifdef USBFS_BUS_RESET_ISR_ENTRY_CALLBACK
 725:Generated_Source\PSoC5/USBFS_episr.c ****     USBFS_BUS_RESET_ISR_EntryCallback();
 726:Generated_Source\PSoC5/USBFS_episr.c **** #endif /* (USBFS_BUS_RESET_ISR_ENTRY_CALLBACK) */
 727:Generated_Source\PSoC5/USBFS_episr.c **** 
 728:Generated_Source\PSoC5/USBFS_episr.c ****     /* `#START BUS_RESET_USER_CODE` Place your code here */
 729:Generated_Source\PSoC5/USBFS_episr.c **** 
 730:Generated_Source\PSoC5/USBFS_episr.c ****     /* `#END` */
 731:Generated_Source\PSoC5/USBFS_episr.c **** 
 732:Generated_Source\PSoC5/USBFS_episr.c ****     USBFS_ClearSieInterruptSource(USBFS_INTR_SIE_BUS_RESET_INTR);
 733:Generated_Source\PSoC5/USBFS_episr.c **** 
 734:Generated_Source\PSoC5/USBFS_episr.c ****     USBFS_ReInitComponent();
 216              		.loc 1 734 0
 217 0002 FFF7FEFF 		bl	USBFS_ReInitComponent
 218              	.LVL0:
 219 0006 08BD     		pop	{r3, pc}
 220              		.cfi_endproc
 221              	.LFE4:
 222              		.size	USBFS_BUS_RESET_ISR, .-USBFS_BUS_RESET_ISR
 223              		.section	.text.USBFS_ARB_ISR,"ax",%progbits
 224              		.align	2
 225              		.global	USBFS_ARB_ISR
 226              		.thumb
 227              		.thumb_func
 228              		.type	USBFS_ARB_ISR, %function
 229              	USBFS_ARB_ISR:
 230              	.LFB5:
 735:Generated_Source\PSoC5/USBFS_episr.c **** 
 736:Generated_Source\PSoC5/USBFS_episr.c **** #ifdef USBFS_BUS_RESET_ISR_EXIT_CALLBACK
 737:Generated_Source\PSoC5/USBFS_episr.c ****     USBFS_BUS_RESET_ISR_ExitCallback();
 738:Generated_Source\PSoC5/USBFS_episr.c **** #endif /* (USBFS_BUS_RESET_ISR_EXIT_CALLBACK) */
 739:Generated_Source\PSoC5/USBFS_episr.c **** }
ARM GAS  C:\Users\Admin\AppData\Local\Temp\ccLuJTHH.s 			page 18


 740:Generated_Source\PSoC5/USBFS_episr.c **** #endif /* (USBFS_BUS_RESET_ISR_ACTIVE) */
 741:Generated_Source\PSoC5/USBFS_episr.c **** 
 742:Generated_Source\PSoC5/USBFS_episr.c **** 
 743:Generated_Source\PSoC5/USBFS_episr.c **** #if (USBFS_LPM_ACTIVE)
 744:Generated_Source\PSoC5/USBFS_episr.c **** /***************************************************************************
 745:Generated_Source\PSoC5/USBFS_episr.c **** * Function Name: USBFS_INTR_LPM_ISR
 746:Generated_Source\PSoC5/USBFS_episr.c **** ************************************************************************//**
 747:Generated_Source\PSoC5/USBFS_episr.c **** *
 748:Generated_Source\PSoC5/USBFS_episr.c **** *   Interrupt Service Routine for LPM of the interrupt sources.
 749:Generated_Source\PSoC5/USBFS_episr.c **** *
 750:Generated_Source\PSoC5/USBFS_episr.c **** *
 751:Generated_Source\PSoC5/USBFS_episr.c **** ***************************************************************************/
 752:Generated_Source\PSoC5/USBFS_episr.c **** CY_ISR(USBFS_LPM_ISR)
 753:Generated_Source\PSoC5/USBFS_episr.c **** {
 754:Generated_Source\PSoC5/USBFS_episr.c **** #ifdef USBFS_LPM_ISR_ENTRY_CALLBACK
 755:Generated_Source\PSoC5/USBFS_episr.c ****     USBFS_LPM_ISR_EntryCallback();
 756:Generated_Source\PSoC5/USBFS_episr.c **** #endif /* (USBFS_LPM_ISR_ENTRY_CALLBACK) */
 757:Generated_Source\PSoC5/USBFS_episr.c **** 
 758:Generated_Source\PSoC5/USBFS_episr.c ****     /* `#START LPM_BEGIN_USER_CODE` Place your code here */
 759:Generated_Source\PSoC5/USBFS_episr.c **** 
 760:Generated_Source\PSoC5/USBFS_episr.c ****     /* `#END` */
 761:Generated_Source\PSoC5/USBFS_episr.c **** 
 762:Generated_Source\PSoC5/USBFS_episr.c ****     USBFS_ClearSieInterruptSource(USBFS_INTR_SIE_LPM_INTR);
 763:Generated_Source\PSoC5/USBFS_episr.c **** 
 764:Generated_Source\PSoC5/USBFS_episr.c ****     /* `#START LPM_END_USER_CODE` Place your code here */
 765:Generated_Source\PSoC5/USBFS_episr.c **** 
 766:Generated_Source\PSoC5/USBFS_episr.c ****     /* `#END` */
 767:Generated_Source\PSoC5/USBFS_episr.c **** 
 768:Generated_Source\PSoC5/USBFS_episr.c **** #ifdef USBFS_LPM_ISR_EXIT_CALLBACK
 769:Generated_Source\PSoC5/USBFS_episr.c ****     USBFS_LPM_ISR_ExitCallback();
 770:Generated_Source\PSoC5/USBFS_episr.c **** #endif /* (USBFS_LPM_ISR_EXIT_CALLBACK) */
 771:Generated_Source\PSoC5/USBFS_episr.c **** }
 772:Generated_Source\PSoC5/USBFS_episr.c **** #endif /* (USBFS_LPM_ACTIVE) */
 773:Generated_Source\PSoC5/USBFS_episr.c **** 
 774:Generated_Source\PSoC5/USBFS_episr.c **** 
 775:Generated_Source\PSoC5/USBFS_episr.c **** #if (USBFS_EP_MANAGEMENT_DMA && USBFS_ARB_ISR_ACTIVE)
 776:Generated_Source\PSoC5/USBFS_episr.c ****     /***************************************************************************
 777:Generated_Source\PSoC5/USBFS_episr.c ****     * Function Name: USBFS_ARB_ISR
 778:Generated_Source\PSoC5/USBFS_episr.c ****     ************************************************************************//**
 779:Generated_Source\PSoC5/USBFS_episr.c ****     *
 780:Generated_Source\PSoC5/USBFS_episr.c ****     *  Arbiter Interrupt Service Routine.
 781:Generated_Source\PSoC5/USBFS_episr.c ****     *
 782:Generated_Source\PSoC5/USBFS_episr.c ****     *
 783:Generated_Source\PSoC5/USBFS_episr.c ****     ***************************************************************************/
 784:Generated_Source\PSoC5/USBFS_episr.c ****     CY_ISR(USBFS_ARB_ISR)
 785:Generated_Source\PSoC5/USBFS_episr.c ****     {
 231              		.loc 1 785 0
 232              		.cfi_startproc
 233              		@ args = 0, pretend = 0, frame = 0
 234              		@ frame_needed = 0, uses_anonymous_args = 0
 235              		@ link register save eliminated.
 236 0000 70B4     		push	{r4, r5, r6}
 237              		.cfi_def_cfa_offset 12
 238              		.cfi_offset 4, -12
 239              		.cfi_offset 5, -8
 240              		.cfi_offset 6, -4
 241              	.LVL1:
ARM GAS  C:\Users\Admin\AppData\Local\Temp\ccLuJTHH.s 			page 19


 786:Generated_Source\PSoC5/USBFS_episr.c ****         uint8 arbIntrStatus;
 787:Generated_Source\PSoC5/USBFS_episr.c ****         uint8 epStatus;
 788:Generated_Source\PSoC5/USBFS_episr.c ****         uint8 ep = USBFS_EP1;
 789:Generated_Source\PSoC5/USBFS_episr.c **** 
 790:Generated_Source\PSoC5/USBFS_episr.c ****     #ifdef USBFS_ARB_ISR_ENTRY_CALLBACK
 791:Generated_Source\PSoC5/USBFS_episr.c ****         USBFS_ARB_ISR_EntryCallback();
 792:Generated_Source\PSoC5/USBFS_episr.c ****     #endif /* (USBFS_ARB_ISR_ENTRY_CALLBACK) */
 793:Generated_Source\PSoC5/USBFS_episr.c **** 
 794:Generated_Source\PSoC5/USBFS_episr.c ****         /* `#START ARB_BEGIN_USER_CODE` Place your code here */
 795:Generated_Source\PSoC5/USBFS_episr.c **** 
 796:Generated_Source\PSoC5/USBFS_episr.c ****         /* `#END` */
 797:Generated_Source\PSoC5/USBFS_episr.c **** 
 798:Generated_Source\PSoC5/USBFS_episr.c ****         /* Get pending ARB interrupt sources. */
 799:Generated_Source\PSoC5/USBFS_episr.c ****         arbIntrStatus = USBFS_ARB_INT_SR_REG;
 242              		.loc 1 799 0
 243 0002 234B     		ldr	r3, .L26
 244 0004 1C78     		ldrb	r4, [r3]	@ zero_extendqisi2
 245 0006 E4B2     		uxtb	r4, r4
 246              	.LVL2:
 788:Generated_Source\PSoC5/USBFS_episr.c **** 
 247              		.loc 1 788 0
 248 0008 0123     		movs	r3, #1
 800:Generated_Source\PSoC5/USBFS_episr.c **** 
 801:Generated_Source\PSoC5/USBFS_episr.c ****         while (0u != arbIntrStatus)
 249              		.loc 1 801 0
 250 000a 3DE0     		b	.L20
 251              	.LVL3:
 252              	.L24:
 802:Generated_Source\PSoC5/USBFS_episr.c ****         {
 803:Generated_Source\PSoC5/USBFS_episr.c ****             /* Check which EP is interrupt source. */
 804:Generated_Source\PSoC5/USBFS_episr.c ****             if (0u != (arbIntrStatus & 0x01u))
 253              		.loc 1 804 0
 254 000c 14F0010F 		tst	r4, #1
 255 0010 37D0     		beq	.L21
 805:Generated_Source\PSoC5/USBFS_episr.c ****             {
 806:Generated_Source\PSoC5/USBFS_episr.c ****                 /* Get endpoint enable interrupt sources. */
 807:Generated_Source\PSoC5/USBFS_episr.c ****                 epStatus = (USBFS_ARB_EP_BASE.arbEp[ep].epSr & USBFS_ARB_EP_BASE.arbEp[ep].epIntEn)
 256              		.loc 1 807 0
 257 0012 1A46     		mov	r2, r3
 258 0014 1901     		lsls	r1, r3, #4
 259 0016 1F48     		ldr	r0, .L26+4
 260 0018 0844     		add	r0, r0, r1
 261 001a 8178     		ldrb	r1, [r0, #2]	@ zero_extendqisi2
 262 001c 4078     		ldrb	r0, [r0, #1]	@ zero_extendqisi2
 263 001e 0140     		ands	r1, r1, r0
 264              	.LVL4:
 808:Generated_Source\PSoC5/USBFS_episr.c **** 
 809:Generated_Source\PSoC5/USBFS_episr.c ****                 /* Handle IN endpoint buffer full event: happens only once when endpoint buffer is 
 810:Generated_Source\PSoC5/USBFS_episr.c ****                 if (0u != (epStatus & USBFS_ARB_EPX_INT_IN_BUF_FULL))
 265              		.loc 1 810 0
 266 0020 11F0010F 		tst	r1, #1
 267 0024 17D0     		beq	.L22
 811:Generated_Source\PSoC5/USBFS_episr.c ****                 {
 812:Generated_Source\PSoC5/USBFS_episr.c ****                     if (0u != (USBFS_EP[ep].addr & USBFS_DIR_IN))
 268              		.loc 1 812 0
 269 0026 03EB4305 		add	r5, r3, r3, lsl #1
 270 002a A800     		lsls	r0, r5, #2
ARM GAS  C:\Users\Admin\AppData\Local\Temp\ccLuJTHH.s 			page 20


 271 002c 1A4D     		ldr	r5, .L26+8
 272 002e 2844     		add	r0, r0, r5
 273 0030 0079     		ldrb	r0, [r0, #4]	@ zero_extendqisi2
 274 0032 10F0800F 		tst	r0, #128
 275 0036 0ED0     		beq	.L22
 813:Generated_Source\PSoC5/USBFS_episr.c ****                     {
 814:Generated_Source\PSoC5/USBFS_episr.c ****                         /* Clear data ready status. */
 815:Generated_Source\PSoC5/USBFS_episr.c ****                         USBFS_ARB_EP_BASE.arbEp[ep].epCfg &= (uint8) ~USBFS_ARB_EPX_CFG_IN_DATA_RDY
 276              		.loc 1 815 0
 277 0038 164D     		ldr	r5, .L26+4
 278 003a 1E01     		lsls	r6, r3, #4
 279 003c A85D     		ldrb	r0, [r5, r6]	@ zero_extendqisi2
 280 003e 00F0FE00 		and	r0, r0, #254
 281 0042 A855     		strb	r0, [r5, r6]
 816:Generated_Source\PSoC5/USBFS_episr.c **** 
 817:Generated_Source\PSoC5/USBFS_episr.c ****                     #if (CY_PSOC3 || CY_PSOC5LP)
 818:Generated_Source\PSoC5/USBFS_episr.c ****                         #if (USBFS_EP_MANAGEMENT_DMA_AUTO && (USBFS_EP_DMA_AUTO_OPT == 0u))
 819:Generated_Source\PSoC5/USBFS_episr.c ****                             /* Set up common area DMA with rest of data. */
 820:Generated_Source\PSoC5/USBFS_episr.c ****                             if(USBFS_inLength[ep] > USBFS_DMA_BYTES_PER_BURST)
 821:Generated_Source\PSoC5/USBFS_episr.c ****                             {
 822:Generated_Source\PSoC5/USBFS_episr.c ****                                 USBFS_LoadNextInEP(ep, 0u);
 823:Generated_Source\PSoC5/USBFS_episr.c ****                             }
 824:Generated_Source\PSoC5/USBFS_episr.c ****                             else
 825:Generated_Source\PSoC5/USBFS_episr.c ****                             {
 826:Generated_Source\PSoC5/USBFS_episr.c ****                                 USBFS_inBufFull[ep] = 1u;
 827:Generated_Source\PSoC5/USBFS_episr.c ****                             }
 828:Generated_Source\PSoC5/USBFS_episr.c ****                         #endif /* (USBFS_EP_MANAGEMENT_DMA_AUTO && (USBFS_EP_DMA_AUTO_OPT == 0u)) *
 829:Generated_Source\PSoC5/USBFS_episr.c ****                     #endif /* (CY_PSOC3 || CY_PSOC5LP) */
 830:Generated_Source\PSoC5/USBFS_episr.c **** 
 831:Generated_Source\PSoC5/USBFS_episr.c ****                         /* Arm IN endpoint. */
 832:Generated_Source\PSoC5/USBFS_episr.c ****                         USBFS_SIE_EP_BASE.sieEp[ep].epCr0 = USBFS_EP[ep].epMode;
 282              		.loc 1 832 0
 283 0044 03EB4305 		add	r5, r3, r3, lsl #1
 284 0048 A800     		lsls	r0, r5, #2
 285 004a 134D     		ldr	r5, .L26+8
 286 004c 2844     		add	r0, r0, r5
 287 004e 4579     		ldrb	r5, [r0, #5]	@ zero_extendqisi2
 288 0050 EDB2     		uxtb	r5, r5
 289 0052 1248     		ldr	r0, .L26+12
 290 0054 8555     		strb	r5, [r0, r6]
 291              	.L22:
 833:Generated_Source\PSoC5/USBFS_episr.c **** 
 834:Generated_Source\PSoC5/USBFS_episr.c ****                     #if (defined(USBFS_ENABLE_MIDI_STREAMING) && USBFS_ISR_SERVICE_MIDI_IN)
 835:Generated_Source\PSoC5/USBFS_episr.c ****                         if (ep == USBFS_midi_in_ep)
 836:Generated_Source\PSoC5/USBFS_episr.c ****                         {
 837:Generated_Source\PSoC5/USBFS_episr.c ****                             /* Clear MIDI input pointer. */
 838:Generated_Source\PSoC5/USBFS_episr.c ****                             USBFS_midiInPointer = 0u;
 839:Generated_Source\PSoC5/USBFS_episr.c ****                         }
 840:Generated_Source\PSoC5/USBFS_episr.c ****                     #endif /* (USBFS_ENABLE_MIDI_STREAMING) */
 841:Generated_Source\PSoC5/USBFS_episr.c ****                     }
 842:Generated_Source\PSoC5/USBFS_episr.c ****                 }
 843:Generated_Source\PSoC5/USBFS_episr.c **** 
 844:Generated_Source\PSoC5/USBFS_episr.c ****             #if (USBFS_EP_MANAGEMENT_DMA_MANUAL)
 845:Generated_Source\PSoC5/USBFS_episr.c ****                 /* Handle DMA completion event for OUT endpoints. */
 846:Generated_Source\PSoC5/USBFS_episr.c ****                 if (0u != (epStatus & USBFS_ARB_EPX_SR_DMA_GNT))
 292              		.loc 1 846 0
 293 0056 11F0020F 		tst	r1, #2
ARM GAS  C:\Users\Admin\AppData\Local\Temp\ccLuJTHH.s 			page 21


 294 005a 0FD0     		beq	.L23
 847:Generated_Source\PSoC5/USBFS_episr.c ****                 {
 848:Generated_Source\PSoC5/USBFS_episr.c ****                     if (0u == (USBFS_EP[ep].addr & USBFS_DIR_IN))
 295              		.loc 1 848 0
 296 005c 02EB4205 		add	r5, r2, r2, lsl #1
 297 0060 A800     		lsls	r0, r5, #2
 298 0062 0D4D     		ldr	r5, .L26+8
 299 0064 2844     		add	r0, r0, r5
 300 0066 0079     		ldrb	r0, [r0, #4]	@ zero_extendqisi2
 301 0068 10F0800F 		tst	r0, #128
 302 006c 06D1     		bne	.L23
 849:Generated_Source\PSoC5/USBFS_episr.c ****                     {
 850:Generated_Source\PSoC5/USBFS_episr.c ****                         /* Notify user that data has been copied from endpoint buffer. */
 851:Generated_Source\PSoC5/USBFS_episr.c ****                         USBFS_EP[ep].apiEpState = USBFS_NO_EVENT_PENDING;
 303              		.loc 1 851 0
 304 006e 02EB4205 		add	r5, r2, r2, lsl #1
 305 0072 A800     		lsls	r0, r5, #2
 306 0074 084D     		ldr	r5, .L26+8
 307 0076 2844     		add	r0, r0, r5
 308 0078 0025     		movs	r5, #0
 309 007a 4570     		strb	r5, [r0, #1]
 310              	.L23:
 852:Generated_Source\PSoC5/USBFS_episr.c **** 
 853:Generated_Source\PSoC5/USBFS_episr.c ****                         /* DMA done coping data: OUT endpoint has to be re-armed by user. */
 854:Generated_Source\PSoC5/USBFS_episr.c ****                     }
 855:Generated_Source\PSoC5/USBFS_episr.c ****                 }
 856:Generated_Source\PSoC5/USBFS_episr.c ****             #endif /* (USBFS_EP_MANAGEMENT_DMA_MANUAL) */
 857:Generated_Source\PSoC5/USBFS_episr.c **** 
 858:Generated_Source\PSoC5/USBFS_episr.c ****             #if (CY_PSOC4 && USBFS_EP_MANAGEMENT_DMA_AUTO)
 859:Generated_Source\PSoC5/USBFS_episr.c ****                 /* Handle DMA completion event for OUT endpoints. */
 860:Generated_Source\PSoC5/USBFS_episr.c ****                 if (0u != (epStatus & USBFS_ARB_EPX_INT_DMA_TERMIN))
 861:Generated_Source\PSoC5/USBFS_episr.c ****                 {
 862:Generated_Source\PSoC5/USBFS_episr.c ****                     uint32 channelNum = USBFS_DmaChan[ep];
 863:Generated_Source\PSoC5/USBFS_episr.c **** 
 864:Generated_Source\PSoC5/USBFS_episr.c ****                     /* Restore burst counter for endpoint. */
 865:Generated_Source\PSoC5/USBFS_episr.c ****                     USBFS_DmaEpBurstCnt[ep] = USBFS_DMA_GET_BURST_CNT(USBFS_DmaEpBurstCntBackup[ep]
 866:Generated_Source\PSoC5/USBFS_episr.c **** 
 867:Generated_Source\PSoC5/USBFS_episr.c ****                     /* Disable DMA channel to restore descriptor configuration. The on-going transf
 868:Generated_Source\PSoC5/USBFS_episr.c ****                     USBFS_CyDmaChDisable(channelNum);
 869:Generated_Source\PSoC5/USBFS_episr.c **** 
 870:Generated_Source\PSoC5/USBFS_episr.c ****                     /* Generate DMA tr_out signal to notify USB IP that DMA is done. This signal is
 871:Generated_Source\PSoC5/USBFS_episr.c ****                     * when transfer was aborted (it occurs when host writes less bytes than buffer 
 872:Generated_Source\PSoC5/USBFS_episr.c ****                     */
 873:Generated_Source\PSoC5/USBFS_episr.c ****                     USBFS_CyDmaTriggerOut(USBFS_DmaBurstEndOut[ep]);
 874:Generated_Source\PSoC5/USBFS_episr.c **** 
 875:Generated_Source\PSoC5/USBFS_episr.c ****                     /* Restore destination address for output endpoint. */
 876:Generated_Source\PSoC5/USBFS_episr.c ****                     USBFS_CyDmaSetDstAddress(channelNum, USBFS_DMA_DESCR0, (void*) ((uint32) USBFS_
 877:Generated_Source\PSoC5/USBFS_episr.c ****                     USBFS_CyDmaSetDstAddress(channelNum, USBFS_DMA_DESCR1, (void*) ((uint32) USBFS_
 878:Generated_Source\PSoC5/USBFS_episr.c ****                                                                                                    
 879:Generated_Source\PSoC5/USBFS_episr.c **** 
 880:Generated_Source\PSoC5/USBFS_episr.c ****                     /* Restore number of data elements to transfer which was adjusted for last burs
 881:Generated_Source\PSoC5/USBFS_episr.c ****                     if (0u != (USBFS_DmaEpLastBurstEl[ep] & USBFS_DMA_DESCR_REVERT))
 882:Generated_Source\PSoC5/USBFS_episr.c ****                     {
 883:Generated_Source\PSoC5/USBFS_episr.c ****                         USBFS_CyDmaSetNumDataElements(channelNum, (USBFS_DmaEpLastBurstEl[ep] >> US
 884:Generated_Source\PSoC5/USBFS_episr.c ****                                                                              USBFS_DMA_GET_MAX_ELEM
 885:Generated_Source\PSoC5/USBFS_episr.c ****                     }
 886:Generated_Source\PSoC5/USBFS_episr.c **** 
ARM GAS  C:\Users\Admin\AppData\Local\Temp\ccLuJTHH.s 			page 22


 887:Generated_Source\PSoC5/USBFS_episr.c ****                     /* Validate descriptor 0 and 1 (also reset current state). Command to start wit
 888:Generated_Source\PSoC5/USBFS_episr.c ****                     USBFS_CyDmaValidateDescriptor(channelNum, USBFS_DMA_DESCR0);
 889:Generated_Source\PSoC5/USBFS_episr.c ****                     if (USBFS_DmaEpBurstCntBackup[ep] > 1u)
 890:Generated_Source\PSoC5/USBFS_episr.c ****                     {
 891:Generated_Source\PSoC5/USBFS_episr.c ****                         USBFS_CyDmaValidateDescriptor(channelNum, USBFS_DMA_DESCR1);
 892:Generated_Source\PSoC5/USBFS_episr.c ****                     }
 893:Generated_Source\PSoC5/USBFS_episr.c ****                     USBFS_CyDmaSetDescriptor0Next(channelNum);
 894:Generated_Source\PSoC5/USBFS_episr.c **** 
 895:Generated_Source\PSoC5/USBFS_episr.c ****                     /* Enable DMA channel: configuration complete. */
 896:Generated_Source\PSoC5/USBFS_episr.c ****                     USBFS_CyDmaChEnable(channelNum);
 897:Generated_Source\PSoC5/USBFS_episr.c ****                     
 898:Generated_Source\PSoC5/USBFS_episr.c ****                     
 899:Generated_Source\PSoC5/USBFS_episr.c ****                     /* Read CR0 register to clear SIE lock. */
 900:Generated_Source\PSoC5/USBFS_episr.c ****                     (void) USBFS_SIE_EP_BASE.sieEp[ep].epCr0;
 901:Generated_Source\PSoC5/USBFS_episr.c ****                     
 902:Generated_Source\PSoC5/USBFS_episr.c ****                     /* Toggle all endpoint types except ISOC. */
 903:Generated_Source\PSoC5/USBFS_episr.c ****                     if (USBFS_GET_EP_TYPE(ep) != USBFS_EP_TYPE_ISOC)
 904:Generated_Source\PSoC5/USBFS_episr.c ****                     {
 905:Generated_Source\PSoC5/USBFS_episr.c ****                         USBFS_EP[ep].epToggle ^= USBFS_EPX_CNT_DATA_TOGGLE;
 906:Generated_Source\PSoC5/USBFS_episr.c ****                     }
 907:Generated_Source\PSoC5/USBFS_episr.c ****             
 908:Generated_Source\PSoC5/USBFS_episr.c ****                     /* Notify user that data has been copied from endpoint buffer. */
 909:Generated_Source\PSoC5/USBFS_episr.c ****                     USBFS_EP[ep].apiEpState = USBFS_EVENT_PENDING;
 910:Generated_Source\PSoC5/USBFS_episr.c ****                     
 911:Generated_Source\PSoC5/USBFS_episr.c ****                 #if (defined(USBFS_ENABLE_MIDI_STREAMING) && \
 912:Generated_Source\PSoC5/USBFS_episr.c ****                     !defined(USBFS_MAIN_SERVICE_MIDI_OUT) && USBFS_ISR_SERVICE_MIDI_OUT)
 913:Generated_Source\PSoC5/USBFS_episr.c ****                     if (USBFS_midi_out_ep == ep)
 914:Generated_Source\PSoC5/USBFS_episr.c ****                     {
 915:Generated_Source\PSoC5/USBFS_episr.c ****                         USBFS_MIDI_OUT_Service();
 916:Generated_Source\PSoC5/USBFS_episr.c ****                     }
 917:Generated_Source\PSoC5/USBFS_episr.c ****                 #endif /* (USBFS_ISR_SERVICE_MIDI_OUT) */
 918:Generated_Source\PSoC5/USBFS_episr.c ****                 }
 919:Generated_Source\PSoC5/USBFS_episr.c ****             #endif /* (CY_PSOC4 && USBFS_EP_MANAGEMENT_DMA_AUTO) */
 920:Generated_Source\PSoC5/USBFS_episr.c **** 
 921:Generated_Source\PSoC5/USBFS_episr.c **** 
 922:Generated_Source\PSoC5/USBFS_episr.c ****                 /* `#START ARB_USER_CODE` Place your code here for handle Buffer Underflow/Overflow
 923:Generated_Source\PSoC5/USBFS_episr.c **** 
 924:Generated_Source\PSoC5/USBFS_episr.c ****                 /* `#END` */
 925:Generated_Source\PSoC5/USBFS_episr.c **** 
 926:Generated_Source\PSoC5/USBFS_episr.c ****             #ifdef USBFS_ARB_ISR_CALLBACK
 927:Generated_Source\PSoC5/USBFS_episr.c ****                 USBFS_ARB_ISR_Callback(ep, epStatus);
 928:Generated_Source\PSoC5/USBFS_episr.c ****             #endif /* (USBFS_ARB_ISR_CALLBACK) */
 929:Generated_Source\PSoC5/USBFS_episr.c **** 
 930:Generated_Source\PSoC5/USBFS_episr.c ****                 /* Clear serviced endpoint interrupt sources. */
 931:Generated_Source\PSoC5/USBFS_episr.c ****                 USBFS_ARB_EP_BASE.arbEp[ep].epSr = epStatus;
 311              		.loc 1 931 0
 312 007c 1201     		lsls	r2, r2, #4
 313 007e 0848     		ldr	r0, .L26+16
 314 0080 8154     		strb	r1, [r0, r2]
 315              	.LVL5:
 316              	.L21:
 932:Generated_Source\PSoC5/USBFS_episr.c ****             }
 933:Generated_Source\PSoC5/USBFS_episr.c **** 
 934:Generated_Source\PSoC5/USBFS_episr.c ****             ++ep;
 317              		.loc 1 934 0
 318 0082 0133     		adds	r3, r3, #1
 319              	.LVL6:
ARM GAS  C:\Users\Admin\AppData\Local\Temp\ccLuJTHH.s 			page 23


 320 0084 DBB2     		uxtb	r3, r3
 321              	.LVL7:
 935:Generated_Source\PSoC5/USBFS_episr.c ****             arbIntrStatus >>= 1u;
 322              		.loc 1 935 0
 323 0086 6408     		lsrs	r4, r4, #1
 324              	.LVL8:
 325              	.L20:
 801:Generated_Source\PSoC5/USBFS_episr.c ****         {
 326              		.loc 1 801 0
 327 0088 002C     		cmp	r4, #0
 328 008a BFD1     		bne	.L24
 936:Generated_Source\PSoC5/USBFS_episr.c ****         }
 937:Generated_Source\PSoC5/USBFS_episr.c **** 
 938:Generated_Source\PSoC5/USBFS_episr.c ****         /* `#START ARB_END_USER_CODE` Place your code here */
 939:Generated_Source\PSoC5/USBFS_episr.c **** 
 940:Generated_Source\PSoC5/USBFS_episr.c ****         /* `#END` */
 941:Generated_Source\PSoC5/USBFS_episr.c **** 
 942:Generated_Source\PSoC5/USBFS_episr.c ****     #ifdef USBFS_ARB_ISR_EXIT_CALLBACK
 943:Generated_Source\PSoC5/USBFS_episr.c ****         USBFS_ARB_ISR_ExitCallback();
 944:Generated_Source\PSoC5/USBFS_episr.c ****     #endif /* (USBFS_ARB_ISR_EXIT_CALLBACK) */
 945:Generated_Source\PSoC5/USBFS_episr.c ****     }
 329              		.loc 1 945 0
 330 008c 70BC     		pop	{r4, r5, r6}
 331              		.cfi_restore 6
 332              		.cfi_restore 5
 333              		.cfi_restore 4
 334              		.cfi_def_cfa_offset 0
 335              	.LVL9:
 336 008e 7047     		bx	lr
 337              	.L27:
 338              		.align	2
 339              	.L26:
 340 0090 9F600040 		.word	1073766559
 341 0094 70600040 		.word	1073766512
 342 0098 00000000 		.word	USBFS_EP
 343 009c FE5F0040 		.word	1073766398
 344 00a0 72600040 		.word	1073766514
 345              		.cfi_endproc
 346              	.LFE5:
 347              		.size	USBFS_ARB_ISR, .-USBFS_ARB_ISR
 348              		.text
 349              	.Letext0:
 350              		.file 2 "Generated_Source\\PSoC5\\cytypes.h"
 351              		.file 3 "Generated_Source\\PSoC5\\USBFS.h"
 352              		.file 4 "Generated_Source\\PSoC5\\USBFS_pvt.h"